
a.out:     file format elf64-x86-64


Disassembly of section .init:

0000000000003000 <_init>:
    3000:	f3 0f 1e fa          	endbr64 
    3004:	48 83 ec 08          	sub    $0x8,%rsp
    3008:	48 8b 05 d9 2f 05 00 	mov    0x52fd9(%rip),%rax        # 55fe8 <__gmon_start__>
    300f:	48 85 c0             	test   %rax,%rax
    3012:	74 02                	je     3016 <_init+0x16>
    3014:	ff d0                	callq  *%rax
    3016:	48 83 c4 08          	add    $0x8,%rsp
    301a:	c3                   	retq   

Disassembly of section .plt:

0000000000003020 <.plt>:
    3020:	ff 35 6a 2d 05 00    	pushq  0x52d6a(%rip)        # 55d90 <_GLOBAL_OFFSET_TABLE_+0x8>
    3026:	f2 ff 25 6b 2d 05 00 	bnd jmpq *0x52d6b(%rip)        # 55d98 <_GLOBAL_OFFSET_TABLE_+0x10>
    302d:	0f 1f 00             	nopl   (%rax)
    3030:	f3 0f 1e fa          	endbr64 
    3034:	68 00 00 00 00       	pushq  $0x0
    3039:	f2 e9 e1 ff ff ff    	bnd jmpq 3020 <.plt>
    303f:	90                   	nop
    3040:	f3 0f 1e fa          	endbr64 
    3044:	68 01 00 00 00       	pushq  $0x1
    3049:	f2 e9 d1 ff ff ff    	bnd jmpq 3020 <.plt>
    304f:	90                   	nop
    3050:	f3 0f 1e fa          	endbr64 
    3054:	68 02 00 00 00       	pushq  $0x2
    3059:	f2 e9 c1 ff ff ff    	bnd jmpq 3020 <.plt>
    305f:	90                   	nop
    3060:	f3 0f 1e fa          	endbr64 
    3064:	68 03 00 00 00       	pushq  $0x3
    3069:	f2 e9 b1 ff ff ff    	bnd jmpq 3020 <.plt>
    306f:	90                   	nop
    3070:	f3 0f 1e fa          	endbr64 
    3074:	68 04 00 00 00       	pushq  $0x4
    3079:	f2 e9 a1 ff ff ff    	bnd jmpq 3020 <.plt>
    307f:	90                   	nop
    3080:	f3 0f 1e fa          	endbr64 
    3084:	68 05 00 00 00       	pushq  $0x5
    3089:	f2 e9 91 ff ff ff    	bnd jmpq 3020 <.plt>
    308f:	90                   	nop
    3090:	f3 0f 1e fa          	endbr64 
    3094:	68 06 00 00 00       	pushq  $0x6
    3099:	f2 e9 81 ff ff ff    	bnd jmpq 3020 <.plt>
    309f:	90                   	nop
    30a0:	f3 0f 1e fa          	endbr64 
    30a4:	68 07 00 00 00       	pushq  $0x7
    30a9:	f2 e9 71 ff ff ff    	bnd jmpq 3020 <.plt>
    30af:	90                   	nop
    30b0:	f3 0f 1e fa          	endbr64 
    30b4:	68 08 00 00 00       	pushq  $0x8
    30b9:	f2 e9 61 ff ff ff    	bnd jmpq 3020 <.plt>
    30bf:	90                   	nop
    30c0:	f3 0f 1e fa          	endbr64 
    30c4:	68 09 00 00 00       	pushq  $0x9
    30c9:	f2 e9 51 ff ff ff    	bnd jmpq 3020 <.plt>
    30cf:	90                   	nop
    30d0:	f3 0f 1e fa          	endbr64 
    30d4:	68 0a 00 00 00       	pushq  $0xa
    30d9:	f2 e9 41 ff ff ff    	bnd jmpq 3020 <.plt>
    30df:	90                   	nop
    30e0:	f3 0f 1e fa          	endbr64 
    30e4:	68 0b 00 00 00       	pushq  $0xb
    30e9:	f2 e9 31 ff ff ff    	bnd jmpq 3020 <.plt>
    30ef:	90                   	nop
    30f0:	f3 0f 1e fa          	endbr64 
    30f4:	68 0c 00 00 00       	pushq  $0xc
    30f9:	f2 e9 21 ff ff ff    	bnd jmpq 3020 <.plt>
    30ff:	90                   	nop
    3100:	f3 0f 1e fa          	endbr64 
    3104:	68 0d 00 00 00       	pushq  $0xd
    3109:	f2 e9 11 ff ff ff    	bnd jmpq 3020 <.plt>
    310f:	90                   	nop
    3110:	f3 0f 1e fa          	endbr64 
    3114:	68 0e 00 00 00       	pushq  $0xe
    3119:	f2 e9 01 ff ff ff    	bnd jmpq 3020 <.plt>
    311f:	90                   	nop
    3120:	f3 0f 1e fa          	endbr64 
    3124:	68 0f 00 00 00       	pushq  $0xf
    3129:	f2 e9 f1 fe ff ff    	bnd jmpq 3020 <.plt>
    312f:	90                   	nop
    3130:	f3 0f 1e fa          	endbr64 
    3134:	68 10 00 00 00       	pushq  $0x10
    3139:	f2 e9 e1 fe ff ff    	bnd jmpq 3020 <.plt>
    313f:	90                   	nop
    3140:	f3 0f 1e fa          	endbr64 
    3144:	68 11 00 00 00       	pushq  $0x11
    3149:	f2 e9 d1 fe ff ff    	bnd jmpq 3020 <.plt>
    314f:	90                   	nop
    3150:	f3 0f 1e fa          	endbr64 
    3154:	68 12 00 00 00       	pushq  $0x12
    3159:	f2 e9 c1 fe ff ff    	bnd jmpq 3020 <.plt>
    315f:	90                   	nop
    3160:	f3 0f 1e fa          	endbr64 
    3164:	68 13 00 00 00       	pushq  $0x13
    3169:	f2 e9 b1 fe ff ff    	bnd jmpq 3020 <.plt>
    316f:	90                   	nop
    3170:	f3 0f 1e fa          	endbr64 
    3174:	68 14 00 00 00       	pushq  $0x14
    3179:	f2 e9 a1 fe ff ff    	bnd jmpq 3020 <.plt>
    317f:	90                   	nop
    3180:	f3 0f 1e fa          	endbr64 
    3184:	68 15 00 00 00       	pushq  $0x15
    3189:	f2 e9 91 fe ff ff    	bnd jmpq 3020 <.plt>
    318f:	90                   	nop
    3190:	f3 0f 1e fa          	endbr64 
    3194:	68 16 00 00 00       	pushq  $0x16
    3199:	f2 e9 81 fe ff ff    	bnd jmpq 3020 <.plt>
    319f:	90                   	nop
    31a0:	f3 0f 1e fa          	endbr64 
    31a4:	68 17 00 00 00       	pushq  $0x17
    31a9:	f2 e9 71 fe ff ff    	bnd jmpq 3020 <.plt>
    31af:	90                   	nop
    31b0:	f3 0f 1e fa          	endbr64 
    31b4:	68 18 00 00 00       	pushq  $0x18
    31b9:	f2 e9 61 fe ff ff    	bnd jmpq 3020 <.plt>
    31bf:	90                   	nop
    31c0:	f3 0f 1e fa          	endbr64 
    31c4:	68 19 00 00 00       	pushq  $0x19
    31c9:	f2 e9 51 fe ff ff    	bnd jmpq 3020 <.plt>
    31cf:	90                   	nop
    31d0:	f3 0f 1e fa          	endbr64 
    31d4:	68 1a 00 00 00       	pushq  $0x1a
    31d9:	f2 e9 41 fe ff ff    	bnd jmpq 3020 <.plt>
    31df:	90                   	nop
    31e0:	f3 0f 1e fa          	endbr64 
    31e4:	68 1b 00 00 00       	pushq  $0x1b
    31e9:	f2 e9 31 fe ff ff    	bnd jmpq 3020 <.plt>
    31ef:	90                   	nop
    31f0:	f3 0f 1e fa          	endbr64 
    31f4:	68 1c 00 00 00       	pushq  $0x1c
    31f9:	f2 e9 21 fe ff ff    	bnd jmpq 3020 <.plt>
    31ff:	90                   	nop
    3200:	f3 0f 1e fa          	endbr64 
    3204:	68 1d 00 00 00       	pushq  $0x1d
    3209:	f2 e9 11 fe ff ff    	bnd jmpq 3020 <.plt>
    320f:	90                   	nop
    3210:	f3 0f 1e fa          	endbr64 
    3214:	68 1e 00 00 00       	pushq  $0x1e
    3219:	f2 e9 01 fe ff ff    	bnd jmpq 3020 <.plt>
    321f:	90                   	nop
    3220:	f3 0f 1e fa          	endbr64 
    3224:	68 1f 00 00 00       	pushq  $0x1f
    3229:	f2 e9 f1 fd ff ff    	bnd jmpq 3020 <.plt>
    322f:	90                   	nop
    3230:	f3 0f 1e fa          	endbr64 
    3234:	68 20 00 00 00       	pushq  $0x20
    3239:	f2 e9 e1 fd ff ff    	bnd jmpq 3020 <.plt>
    323f:	90                   	nop
    3240:	f3 0f 1e fa          	endbr64 
    3244:	68 21 00 00 00       	pushq  $0x21
    3249:	f2 e9 d1 fd ff ff    	bnd jmpq 3020 <.plt>
    324f:	90                   	nop
    3250:	f3 0f 1e fa          	endbr64 
    3254:	68 22 00 00 00       	pushq  $0x22
    3259:	f2 e9 c1 fd ff ff    	bnd jmpq 3020 <.plt>
    325f:	90                   	nop
    3260:	f3 0f 1e fa          	endbr64 
    3264:	68 23 00 00 00       	pushq  $0x23
    3269:	f2 e9 b1 fd ff ff    	bnd jmpq 3020 <.plt>
    326f:	90                   	nop
    3270:	f3 0f 1e fa          	endbr64 
    3274:	68 24 00 00 00       	pushq  $0x24
    3279:	f2 e9 a1 fd ff ff    	bnd jmpq 3020 <.plt>
    327f:	90                   	nop
    3280:	f3 0f 1e fa          	endbr64 
    3284:	68 25 00 00 00       	pushq  $0x25
    3289:	f2 e9 91 fd ff ff    	bnd jmpq 3020 <.plt>
    328f:	90                   	nop
    3290:	f3 0f 1e fa          	endbr64 
    3294:	68 26 00 00 00       	pushq  $0x26
    3299:	f2 e9 81 fd ff ff    	bnd jmpq 3020 <.plt>
    329f:	90                   	nop
    32a0:	f3 0f 1e fa          	endbr64 
    32a4:	68 27 00 00 00       	pushq  $0x27
    32a9:	f2 e9 71 fd ff ff    	bnd jmpq 3020 <.plt>
    32af:	90                   	nop
    32b0:	f3 0f 1e fa          	endbr64 
    32b4:	68 28 00 00 00       	pushq  $0x28
    32b9:	f2 e9 61 fd ff ff    	bnd jmpq 3020 <.plt>
    32bf:	90                   	nop
    32c0:	f3 0f 1e fa          	endbr64 
    32c4:	68 29 00 00 00       	pushq  $0x29
    32c9:	f2 e9 51 fd ff ff    	bnd jmpq 3020 <.plt>
    32cf:	90                   	nop
    32d0:	f3 0f 1e fa          	endbr64 
    32d4:	68 2a 00 00 00       	pushq  $0x2a
    32d9:	f2 e9 41 fd ff ff    	bnd jmpq 3020 <.plt>
    32df:	90                   	nop
    32e0:	f3 0f 1e fa          	endbr64 
    32e4:	68 2b 00 00 00       	pushq  $0x2b
    32e9:	f2 e9 31 fd ff ff    	bnd jmpq 3020 <.plt>
    32ef:	90                   	nop
    32f0:	f3 0f 1e fa          	endbr64 
    32f4:	68 2c 00 00 00       	pushq  $0x2c
    32f9:	f2 e9 21 fd ff ff    	bnd jmpq 3020 <.plt>
    32ff:	90                   	nop
    3300:	f3 0f 1e fa          	endbr64 
    3304:	68 2d 00 00 00       	pushq  $0x2d
    3309:	f2 e9 11 fd ff ff    	bnd jmpq 3020 <.plt>
    330f:	90                   	nop
    3310:	f3 0f 1e fa          	endbr64 
    3314:	68 2e 00 00 00       	pushq  $0x2e
    3319:	f2 e9 01 fd ff ff    	bnd jmpq 3020 <.plt>
    331f:	90                   	nop
    3320:	f3 0f 1e fa          	endbr64 
    3324:	68 2f 00 00 00       	pushq  $0x2f
    3329:	f2 e9 f1 fc ff ff    	bnd jmpq 3020 <.plt>
    332f:	90                   	nop
    3330:	f3 0f 1e fa          	endbr64 
    3334:	68 30 00 00 00       	pushq  $0x30
    3339:	f2 e9 e1 fc ff ff    	bnd jmpq 3020 <.plt>
    333f:	90                   	nop
    3340:	f3 0f 1e fa          	endbr64 
    3344:	68 31 00 00 00       	pushq  $0x31
    3349:	f2 e9 d1 fc ff ff    	bnd jmpq 3020 <.plt>
    334f:	90                   	nop
    3350:	f3 0f 1e fa          	endbr64 
    3354:	68 32 00 00 00       	pushq  $0x32
    3359:	f2 e9 c1 fc ff ff    	bnd jmpq 3020 <.plt>
    335f:	90                   	nop
    3360:	f3 0f 1e fa          	endbr64 
    3364:	68 33 00 00 00       	pushq  $0x33
    3369:	f2 e9 b1 fc ff ff    	bnd jmpq 3020 <.plt>
    336f:	90                   	nop
    3370:	f3 0f 1e fa          	endbr64 
    3374:	68 34 00 00 00       	pushq  $0x34
    3379:	f2 e9 a1 fc ff ff    	bnd jmpq 3020 <.plt>
    337f:	90                   	nop
    3380:	f3 0f 1e fa          	endbr64 
    3384:	68 35 00 00 00       	pushq  $0x35
    3389:	f2 e9 91 fc ff ff    	bnd jmpq 3020 <.plt>
    338f:	90                   	nop
    3390:	f3 0f 1e fa          	endbr64 
    3394:	68 36 00 00 00       	pushq  $0x36
    3399:	f2 e9 81 fc ff ff    	bnd jmpq 3020 <.plt>
    339f:	90                   	nop
    33a0:	f3 0f 1e fa          	endbr64 
    33a4:	68 37 00 00 00       	pushq  $0x37
    33a9:	f2 e9 71 fc ff ff    	bnd jmpq 3020 <.plt>
    33af:	90                   	nop
    33b0:	f3 0f 1e fa          	endbr64 
    33b4:	68 38 00 00 00       	pushq  $0x38
    33b9:	f2 e9 61 fc ff ff    	bnd jmpq 3020 <.plt>
    33bf:	90                   	nop
    33c0:	f3 0f 1e fa          	endbr64 
    33c4:	68 39 00 00 00       	pushq  $0x39
    33c9:	f2 e9 51 fc ff ff    	bnd jmpq 3020 <.plt>
    33cf:	90                   	nop
    33d0:	f3 0f 1e fa          	endbr64 
    33d4:	68 3a 00 00 00       	pushq  $0x3a
    33d9:	f2 e9 41 fc ff ff    	bnd jmpq 3020 <.plt>
    33df:	90                   	nop
    33e0:	f3 0f 1e fa          	endbr64 
    33e4:	68 3b 00 00 00       	pushq  $0x3b
    33e9:	f2 e9 31 fc ff ff    	bnd jmpq 3020 <.plt>
    33ef:	90                   	nop
    33f0:	f3 0f 1e fa          	endbr64 
    33f4:	68 3c 00 00 00       	pushq  $0x3c
    33f9:	f2 e9 21 fc ff ff    	bnd jmpq 3020 <.plt>
    33ff:	90                   	nop
    3400:	f3 0f 1e fa          	endbr64 
    3404:	68 3d 00 00 00       	pushq  $0x3d
    3409:	f2 e9 11 fc ff ff    	bnd jmpq 3020 <.plt>
    340f:	90                   	nop
    3410:	f3 0f 1e fa          	endbr64 
    3414:	68 3e 00 00 00       	pushq  $0x3e
    3419:	f2 e9 01 fc ff ff    	bnd jmpq 3020 <.plt>
    341f:	90                   	nop
    3420:	f3 0f 1e fa          	endbr64 
    3424:	68 3f 00 00 00       	pushq  $0x3f
    3429:	f2 e9 f1 fb ff ff    	bnd jmpq 3020 <.plt>
    342f:	90                   	nop
    3430:	f3 0f 1e fa          	endbr64 
    3434:	68 40 00 00 00       	pushq  $0x40
    3439:	f2 e9 e1 fb ff ff    	bnd jmpq 3020 <.plt>
    343f:	90                   	nop
    3440:	f3 0f 1e fa          	endbr64 
    3444:	68 41 00 00 00       	pushq  $0x41
    3449:	f2 e9 d1 fb ff ff    	bnd jmpq 3020 <.plt>
    344f:	90                   	nop
    3450:	f3 0f 1e fa          	endbr64 
    3454:	68 42 00 00 00       	pushq  $0x42
    3459:	f2 e9 c1 fb ff ff    	bnd jmpq 3020 <.plt>
    345f:	90                   	nop

Disassembly of section .plt.got:

0000000000003460 <__cxa_finalize@plt>:
    3460:	f3 0f 1e fa          	endbr64 
    3464:	f2 ff 25 4d 2b 05 00 	bnd jmpq *0x52b4d(%rip)        # 55fb8 <__cxa_finalize@GLIBC_2.2.5>
    346b:	0f 1f 44 00 00       	nopl   0x0(%rax,%rax,1)

Disassembly of section .plt.sec:

0000000000003470 <_ZNKSt7__cxx1112basic_stringIcSt11char_traitsIcESaIcEE8capacityEv@plt>:
    3470:	f3 0f 1e fa          	endbr64 
    3474:	f2 ff 25 25 29 05 00 	bnd jmpq *0x52925(%rip)        # 55da0 <_ZNKSt7__cxx1112basic_stringIcSt11char_traitsIcESaIcEE8capacityEv@GLIBCXX_3.4.21>
    347b:	0f 1f 44 00 00       	nopl   0x0(%rax,%rax,1)

0000000000003480 <_ZNSt7__cxx1112basic_stringIcSt11char_traitsIcESaIcEEaSERKS4_@plt>:
    3480:	f3 0f 1e fa          	endbr64 
    3484:	f2 ff 25 1d 29 05 00 	bnd jmpq *0x5291d(%rip)        # 55da8 <_ZNSt7__cxx1112basic_stringIcSt11char_traitsIcESaIcEEaSERKS4_@GLIBCXX_3.4.21>
    348b:	0f 1f 44 00 00       	nopl   0x0(%rax,%rax,1)

0000000000003490 <__errno_location@plt>:
    3490:	f3 0f 1e fa          	endbr64 
    3494:	f2 ff 25 15 29 05 00 	bnd jmpq *0x52915(%rip)        # 55db0 <__errno_location@GLIBC_2.2.5>
    349b:	0f 1f 44 00 00       	nopl   0x0(%rax,%rax,1)

00000000000034a0 <_ZSt29_Rb_tree_insert_and_rebalancebPSt18_Rb_tree_node_baseS0_RS_@plt>:
    34a0:	f3 0f 1e fa          	endbr64 
    34a4:	f2 ff 25 0d 29 05 00 	bnd jmpq *0x5290d(%rip)        # 55db8 <_ZSt29_Rb_tree_insert_and_rebalancebPSt18_Rb_tree_node_baseS0_RS_@GLIBCXX_3.4>
    34ab:	0f 1f 44 00 00       	nopl   0x0(%rax,%rax,1)

00000000000034b0 <xopenme_clock_start@plt>:
    34b0:	f3 0f 1e fa          	endbr64 
    34b4:	f2 ff 25 05 29 05 00 	bnd jmpq *0x52905(%rip)        # 55dc0 <xopenme_clock_start>
    34bb:	0f 1f 44 00 00       	nopl   0x0(%rax,%rax,1)

00000000000034c0 <xopenme_dump_state@plt>:
    34c0:	f3 0f 1e fa          	endbr64 
    34c4:	f2 ff 25 fd 28 05 00 	bnd jmpq *0x528fd(%rip)        # 55dc8 <xopenme_dump_state>
    34cb:	0f 1f 44 00 00       	nopl   0x0(%rax,%rax,1)

00000000000034d0 <_ZNSt14basic_ifstreamIcSt11char_traitsIcEE5closeEv@plt>:
    34d0:	f3 0f 1e fa          	endbr64 
    34d4:	f2 ff 25 f5 28 05 00 	bnd jmpq *0x528f5(%rip)        # 55dd0 <_ZNSt14basic_ifstreamIcSt11char_traitsIcEE5closeEv@GLIBCXX_3.4>
    34db:	0f 1f 44 00 00       	nopl   0x0(%rax,%rax,1)

00000000000034e0 <_ZNSt13basic_fstreamIcSt11char_traitsIcEED1Ev@plt>:
    34e0:	f3 0f 1e fa          	endbr64 
    34e4:	f2 ff 25 ed 28 05 00 	bnd jmpq *0x528ed(%rip)        # 55dd8 <_ZNSt13basic_fstreamIcSt11char_traitsIcEED1Ev@GLIBCXX_3.4>
    34eb:	0f 1f 44 00 00       	nopl   0x0(%rax,%rax,1)

00000000000034f0 <_ZNSt14basic_ifstreamIcSt11char_traitsIcEED1Ev@plt>:
    34f0:	f3 0f 1e fa          	endbr64 
    34f4:	f2 ff 25 e5 28 05 00 	bnd jmpq *0x528e5(%rip)        # 55de0 <_ZNSt14basic_ifstreamIcSt11char_traitsIcEED1Ev@GLIBCXX_3.4>
    34fb:	0f 1f 44 00 00       	nopl   0x0(%rax,%rax,1)

0000000000003500 <xopenme_finish@plt>:
    3500:	f3 0f 1e fa          	endbr64 
    3504:	f2 ff 25 dd 28 05 00 	bnd jmpq *0x528dd(%rip)        # 55de8 <xopenme_finish>
    350b:	0f 1f 44 00 00       	nopl   0x0(%rax,%rax,1)

0000000000003510 <_ZSt17__throw_bad_allocv@plt>:
    3510:	f3 0f 1e fa          	endbr64 
    3514:	f2 ff 25 d5 28 05 00 	bnd jmpq *0x528d5(%rip)        # 55df0 <_ZSt17__throw_bad_allocv@GLIBCXX_3.4>
    351b:	0f 1f 44 00 00       	nopl   0x0(%rax,%rax,1)

0000000000003520 <xopenme_init@plt>:
    3520:	f3 0f 1e fa          	endbr64 
    3524:	f2 ff 25 cd 28 05 00 	bnd jmpq *0x528cd(%rip)        # 55df8 <xopenme_init>
    352b:	0f 1f 44 00 00       	nopl   0x0(%rax,%rax,1)

0000000000003530 <__cxa_begin_catch@plt>:
    3530:	f3 0f 1e fa          	endbr64 
    3534:	f2 ff 25 c5 28 05 00 	bnd jmpq *0x528c5(%rip)        # 55e00 <__cxa_begin_catch@CXXABI_1.3>
    353b:	0f 1f 44 00 00       	nopl   0x0(%rax,%rax,1)

0000000000003540 <_ZNKSt7__cxx1112basic_stringIcSt11char_traitsIcESaIcEE5c_strEv@plt>:
    3540:	f3 0f 1e fa          	endbr64 
    3544:	f2 ff 25 bd 28 05 00 	bnd jmpq *0x528bd(%rip)        # 55e08 <_ZNKSt7__cxx1112basic_stringIcSt11char_traitsIcESaIcEE5c_strEv@GLIBCXX_3.4.21>
    354b:	0f 1f 44 00 00       	nopl   0x0(%rax,%rax,1)

0000000000003550 <_ZNSt7__cxx1112basic_stringIcSt11char_traitsIcESaIcEEC1ERKS4_@plt>:
    3550:	f3 0f 1e fa          	endbr64 
    3554:	f2 ff 25 b5 28 05 00 	bnd jmpq *0x528b5(%rip)        # 55e10 <_ZNSt7__cxx1112basic_stringIcSt11char_traitsIcESaIcEEC1ERKS4_@GLIBCXX_3.4.21>
    355b:	0f 1f 44 00 00       	nopl   0x0(%rax,%rax,1)

0000000000003560 <_ZNSt7__cxx1119basic_istringstreamIcSt11char_traitsIcESaIcEED1Ev@plt>:
    3560:	f3 0f 1e fa          	endbr64 
    3564:	f2 ff 25 ad 28 05 00 	bnd jmpq *0x528ad(%rip)        # 55e18 <_ZNSt7__cxx1119basic_istringstreamIcSt11char_traitsIcESaIcEED1Ev@GLIBCXX_3.4.21>
    356b:	0f 1f 44 00 00       	nopl   0x0(%rax,%rax,1)

0000000000003570 <__cxa_allocate_exception@plt>:
    3570:	f3 0f 1e fa          	endbr64 
    3574:	f2 ff 25 a5 28 05 00 	bnd jmpq *0x528a5(%rip)        # 55e20 <__cxa_allocate_exception@CXXABI_1.3>
    357b:	0f 1f 44 00 00       	nopl   0x0(%rax,%rax,1)

0000000000003580 <_ZSt20__throw_length_errorPKc@plt>:
    3580:	f3 0f 1e fa          	endbr64 
    3584:	f2 ff 25 9d 28 05 00 	bnd jmpq *0x5289d(%rip)        # 55e28 <_ZSt20__throw_length_errorPKc@GLIBCXX_3.4>
    358b:	0f 1f 44 00 00       	nopl   0x0(%rax,%rax,1)

0000000000003590 <_ZNSt7__cxx1112basic_stringIcSt11char_traitsIcESaIcEEC1EOS4_@plt>:
    3590:	f3 0f 1e fa          	endbr64 
    3594:	f2 ff 25 95 28 05 00 	bnd jmpq *0x52895(%rip)        # 55e30 <_ZNSt7__cxx1112basic_stringIcSt11char_traitsIcESaIcEEC1EOS4_@GLIBCXX_3.4.21>
    359b:	0f 1f 44 00 00       	nopl   0x0(%rax,%rax,1)

00000000000035a0 <_ZSt24__throw_invalid_argumentPKc@plt>:
    35a0:	f3 0f 1e fa          	endbr64 
    35a4:	f2 ff 25 8d 28 05 00 	bnd jmpq *0x5288d(%rip)        # 55e38 <_ZSt24__throw_invalid_argumentPKc@GLIBCXX_3.4>
    35ab:	0f 1f 44 00 00       	nopl   0x0(%rax,%rax,1)

00000000000035b0 <_ZNSt7__cxx1112basic_stringIcSt11char_traitsIcESaIcEED1Ev@plt>:
    35b0:	f3 0f 1e fa          	endbr64 
    35b4:	f2 ff 25 85 28 05 00 	bnd jmpq *0x52885(%rip)        # 55e40 <_ZNSt7__cxx1112basic_stringIcSt11char_traitsIcESaIcEED1Ev@GLIBCXX_3.4.21>
    35bb:	0f 1f 44 00 00       	nopl   0x0(%rax,%rax,1)

00000000000035c0 <__cxa_guard_release@plt>:
    35c0:	f3 0f 1e fa          	endbr64 
    35c4:	f2 ff 25 7d 28 05 00 	bnd jmpq *0x5287d(%rip)        # 55e48 <__cxa_guard_release@CXXABI_1.3>
    35cb:	0f 1f 44 00 00       	nopl   0x0(%rax,%rax,1)

00000000000035d0 <__assert_fail@plt>:
    35d0:	f3 0f 1e fa          	endbr64 
    35d4:	f2 ff 25 75 28 05 00 	bnd jmpq *0x52875(%rip)        # 55e50 <__assert_fail@GLIBC_2.2.5>
    35db:	0f 1f 44 00 00       	nopl   0x0(%rax,%rax,1)

00000000000035e0 <_ZSt18_Rb_tree_incrementPSt18_Rb_tree_node_base@plt>:
    35e0:	f3 0f 1e fa          	endbr64 
    35e4:	f2 ff 25 6d 28 05 00 	bnd jmpq *0x5286d(%rip)        # 55e58 <_ZSt18_Rb_tree_incrementPSt18_Rb_tree_node_base@GLIBCXX_3.4>
    35eb:	0f 1f 44 00 00       	nopl   0x0(%rax,%rax,1)

00000000000035f0 <_ZNKSt7__cxx1112basic_stringIcSt11char_traitsIcESaIcEE4sizeEv@plt>:
    35f0:	f3 0f 1e fa          	endbr64 
    35f4:	f2 ff 25 65 28 05 00 	bnd jmpq *0x52865(%rip)        # 55e60 <_ZNKSt7__cxx1112basic_stringIcSt11char_traitsIcESaIcEE4sizeEv@GLIBCXX_3.4.21>
    35fb:	0f 1f 44 00 00       	nopl   0x0(%rax,%rax,1)

0000000000003600 <_ZNSt7__cxx1118basic_stringstreamIcSt11char_traitsIcESaIcEED1Ev@plt>:
    3600:	f3 0f 1e fa          	endbr64 
    3604:	f2 ff 25 5d 28 05 00 	bnd jmpq *0x5285d(%rip)        # 55e68 <_ZNSt7__cxx1118basic_stringstreamIcSt11char_traitsIcESaIcEED1Ev@GLIBCXX_3.4.21>
    360b:	0f 1f 44 00 00       	nopl   0x0(%rax,%rax,1)

0000000000003610 <memcpy@plt>:
    3610:	f3 0f 1e fa          	endbr64 
    3614:	f2 ff 25 55 28 05 00 	bnd jmpq *0x52855(%rip)        # 55e70 <memcpy@GLIBC_2.14>
    361b:	0f 1f 44 00 00       	nopl   0x0(%rax,%rax,1)

0000000000003620 <_ZNSirsERb@plt>:
    3620:	f3 0f 1e fa          	endbr64 
    3624:	f2 ff 25 4d 28 05 00 	bnd jmpq *0x5284d(%rip)        # 55e78 <_ZNSirsERb@GLIBCXX_3.4>
    362b:	0f 1f 44 00 00       	nopl   0x0(%rax,%rax,1)

0000000000003630 <__cxa_atexit@plt>:
    3630:	f3 0f 1e fa          	endbr64 
    3634:	f2 ff 25 45 28 05 00 	bnd jmpq *0x52845(%rip)        # 55e80 <__cxa_atexit@GLIBC_2.2.5>
    363b:	0f 1f 44 00 00       	nopl   0x0(%rax,%rax,1)

0000000000003640 <_ZStlsIcSt11char_traitsIcESaIcEERSt13basic_ostreamIT_T0_ES7_RKNSt7__cxx1112basic_stringIS4_S5_T1_EE@plt>:
    3640:	f3 0f 1e fa          	endbr64 
    3644:	f2 ff 25 3d 28 05 00 	bnd jmpq *0x5283d(%rip)        # 55e88 <_ZStlsIcSt11char_traitsIcESaIcEERSt13basic_ostreamIT_T0_ES7_RKNSt7__cxx1112basic_stringIS4_S5_T1_EE@GLIBCXX_3.4.21>
    364b:	0f 1f 44 00 00       	nopl   0x0(%rax,%rax,1)

0000000000003650 <_ZdlPv@plt>:
    3650:	f3 0f 1e fa          	endbr64 
    3654:	f2 ff 25 35 28 05 00 	bnd jmpq *0x52835(%rip)        # 55e90 <_ZdlPv@GLIBCXX_3.4>
    365b:	0f 1f 44 00 00       	nopl   0x0(%rax,%rax,1)

0000000000003660 <_ZStlsISt11char_traitsIcEERSt13basic_ostreamIcT_ES5_PKc@plt>:
    3660:	f3 0f 1e fa          	endbr64 
    3664:	f2 ff 25 2d 28 05 00 	bnd jmpq *0x5282d(%rip)        # 55e98 <_ZStlsISt11char_traitsIcEERSt13basic_ostreamIcT_ES5_PKc@GLIBCXX_3.4>
    366b:	0f 1f 44 00 00       	nopl   0x0(%rax,%rax,1)

0000000000003670 <_Znwm@plt>:
    3670:	f3 0f 1e fa          	endbr64 
    3674:	f2 ff 25 25 28 05 00 	bnd jmpq *0x52825(%rip)        # 55ea0 <_Znwm@GLIBCXX_3.4>
    367b:	0f 1f 44 00 00       	nopl   0x0(%rax,%rax,1)

0000000000003680 <_ZSt18_Rb_tree_decrementPSt18_Rb_tree_node_base@plt>:
    3680:	f3 0f 1e fa          	endbr64 
    3684:	f2 ff 25 1d 28 05 00 	bnd jmpq *0x5281d(%rip)        # 55ea8 <_ZSt18_Rb_tree_decrementPSt18_Rb_tree_node_base@GLIBCXX_3.4>
    368b:	0f 1f 44 00 00       	nopl   0x0(%rax,%rax,1)

0000000000003690 <_ZNSolsEPFRSoS_E@plt>:
    3690:	f3 0f 1e fa          	endbr64 
    3694:	f2 ff 25 15 28 05 00 	bnd jmpq *0x52815(%rip)        # 55eb0 <_ZNSolsEPFRSoS_E@GLIBCXX_3.4>
    369b:	0f 1f 44 00 00       	nopl   0x0(%rax,%rax,1)

00000000000036a0 <_ZNSaIcED1Ev@plt>:
    36a0:	f3 0f 1e fa          	endbr64 
    36a4:	f2 ff 25 0d 28 05 00 	bnd jmpq *0x5280d(%rip)        # 55eb8 <_ZNSaIcED1Ev@GLIBCXX_3.4>
    36ab:	0f 1f 44 00 00       	nopl   0x0(%rax,%rax,1)

00000000000036b0 <__stack_chk_fail@plt>:
    36b0:	f3 0f 1e fa          	endbr64 
    36b4:	f2 ff 25 05 28 05 00 	bnd jmpq *0x52805(%rip)        # 55ec0 <__stack_chk_fail@GLIBC_2.4>
    36bb:	0f 1f 44 00 00       	nopl   0x0(%rax,%rax,1)

00000000000036c0 <free@plt>:
    36c0:	f3 0f 1e fa          	endbr64 
    36c4:	f2 ff 25 fd 27 05 00 	bnd jmpq *0x527fd(%rip)        # 55ec8 <free@GLIBC_2.2.5>
    36cb:	0f 1f 44 00 00       	nopl   0x0(%rax,%rax,1)

00000000000036d0 <getenv@plt>:
    36d0:	f3 0f 1e fa          	endbr64 
    36d4:	f2 ff 25 f5 27 05 00 	bnd jmpq *0x527f5(%rip)        # 55ed0 <getenv@GLIBC_2.2.5>
    36db:	0f 1f 44 00 00       	nopl   0x0(%rax,%rax,1)

00000000000036e0 <_ZNSt7__cxx1112basic_stringIcSt11char_traitsIcESaIcEEaSEOS4_@plt>:
    36e0:	f3 0f 1e fa          	endbr64 
    36e4:	f2 ff 25 ed 27 05 00 	bnd jmpq *0x527ed(%rip)        # 55ed8 <_ZNSt7__cxx1112basic_stringIcSt11char_traitsIcESaIcEEaSEOS4_@GLIBCXX_3.4.21>
    36eb:	0f 1f 44 00 00       	nopl   0x0(%rax,%rax,1)

00000000000036f0 <_ZNKSt9basic_iosIcSt11char_traitsIcEEcvbEv@plt>:
    36f0:	f3 0f 1e fa          	endbr64 
    36f4:	f2 ff 25 e5 27 05 00 	bnd jmpq *0x527e5(%rip)        # 55ee0 <_ZNKSt9basic_iosIcSt11char_traitsIcEEcvbEv@GLIBCXX_3.4.21>
    36fb:	0f 1f 44 00 00       	nopl   0x0(%rax,%rax,1)

0000000000003700 <malloc@plt>:
    3700:	f3 0f 1e fa          	endbr64 
    3704:	f2 ff 25 dd 27 05 00 	bnd jmpq *0x527dd(%rip)        # 55ee8 <malloc@GLIBC_2.2.5>
    370b:	0f 1f 44 00 00       	nopl   0x0(%rax,%rax,1)

0000000000003710 <xopenme_clock_end@plt>:
    3710:	f3 0f 1e fa          	endbr64 
    3714:	f2 ff 25 d5 27 05 00 	bnd jmpq *0x527d5(%rip)        # 55ef0 <xopenme_clock_end>
    371b:	0f 1f 44 00 00       	nopl   0x0(%rax,%rax,1)

0000000000003720 <_ZNSt7__cxx1112basic_stringIcSt11char_traitsIcESaIcEEC1EPKcRKS3_@plt>:
    3720:	f3 0f 1e fa          	endbr64 
    3724:	f2 ff 25 cd 27 05 00 	bnd jmpq *0x527cd(%rip)        # 55ef8 <_ZNSt7__cxx1112basic_stringIcSt11char_traitsIcESaIcEEC1EPKcRKS3_@GLIBCXX_3.4.21>
    372b:	0f 1f 44 00 00       	nopl   0x0(%rax,%rax,1)

0000000000003730 <_ZNSt7__cxx1112basic_stringIcSt11char_traitsIcESaIcEEC1Ev@plt>:
    3730:	f3 0f 1e fa          	endbr64 
    3734:	f2 ff 25 c5 27 05 00 	bnd jmpq *0x527c5(%rip)        # 55f00 <_ZNSt7__cxx1112basic_stringIcSt11char_traitsIcESaIcEEC1Ev@GLIBCXX_3.4.21>
    373b:	0f 1f 44 00 00       	nopl   0x0(%rax,%rax,1)

0000000000003740 <_ZSt20__throw_out_of_rangePKc@plt>:
    3740:	f3 0f 1e fa          	endbr64 
    3744:	f2 ff 25 bd 27 05 00 	bnd jmpq *0x527bd(%rip)        # 55f08 <_ZSt20__throw_out_of_rangePKc@GLIBCXX_3.4>
    374b:	0f 1f 44 00 00       	nopl   0x0(%rax,%rax,1)

0000000000003750 <__cxa_rethrow@plt>:
    3750:	f3 0f 1e fa          	endbr64 
    3754:	f2 ff 25 b5 27 05 00 	bnd jmpq *0x527b5(%rip)        # 55f10 <__cxa_rethrow@CXXABI_1.3>
    375b:	0f 1f 44 00 00       	nopl   0x0(%rax,%rax,1)

0000000000003760 <_ZSt24__throw_out_of_range_fmtPKcz@plt>:
    3760:	f3 0f 1e fa          	endbr64 
    3764:	f2 ff 25 ad 27 05 00 	bnd jmpq *0x527ad(%rip)        # 55f18 <_ZSt24__throw_out_of_range_fmtPKcz@GLIBCXX_3.4.20>
    376b:	0f 1f 44 00 00       	nopl   0x0(%rax,%rax,1)

0000000000003770 <_ZNSt8ios_base4InitC1Ev@plt>:
    3770:	f3 0f 1e fa          	endbr64 
    3774:	f2 ff 25 a5 27 05 00 	bnd jmpq *0x527a5(%rip)        # 55f20 <_ZNSt8ios_base4InitC1Ev@GLIBCXX_3.4>
    377b:	0f 1f 44 00 00       	nopl   0x0(%rax,%rax,1)

0000000000003780 <_ZNSt7__cxx1118basic_stringstreamIcSt11char_traitsIcESaIcEEC1ERKNS_12basic_stringIcS2_S3_EESt13_Ios_Openmode@plt>:
    3780:	f3 0f 1e fa          	endbr64 
    3784:	f2 ff 25 9d 27 05 00 	bnd jmpq *0x5279d(%rip)        # 55f28 <_ZNSt7__cxx1118basic_stringstreamIcSt11char_traitsIcESaIcEEC1ERKNS_12basic_stringIcS2_S3_EESt13_Ios_Openmode@GLIBCXX_3.4.21>
    378b:	0f 1f 44 00 00       	nopl   0x0(%rax,%rax,1)

0000000000003790 <_ZNSt7__cxx1112basic_stringIcSt11char_traitsIcESaIcEE6insertEmRKS4_@plt>:
    3790:	f3 0f 1e fa          	endbr64 
    3794:	f2 ff 25 95 27 05 00 	bnd jmpq *0x52795(%rip)        # 55f30 <_ZNSt7__cxx1112basic_stringIcSt11char_traitsIcESaIcEE6insertEmRKS4_@GLIBCXX_3.4.21>
    379b:	0f 1f 44 00 00       	nopl   0x0(%rax,%rax,1)

00000000000037a0 <_ZNSt14basic_ifstreamIcSt11char_traitsIcEE7is_openEv@plt>:
    37a0:	f3 0f 1e fa          	endbr64 
    37a4:	f2 ff 25 8d 27 05 00 	bnd jmpq *0x5278d(%rip)        # 55f38 <_ZNSt14basic_ifstreamIcSt11char_traitsIcEE7is_openEv@GLIBCXX_3.4>
    37ab:	0f 1f 44 00 00       	nopl   0x0(%rax,%rax,1)

00000000000037b0 <_ZNSt14basic_ifstreamIcSt11char_traitsIcEEC1ERKNSt7__cxx1112basic_stringIcS1_SaIcEEESt13_Ios_Openmode@plt>:
    37b0:	f3 0f 1e fa          	endbr64 
    37b4:	f2 ff 25 85 27 05 00 	bnd jmpq *0x52785(%rip)        # 55f40 <_ZNSt14basic_ifstreamIcSt11char_traitsIcEEC1ERKNSt7__cxx1112basic_stringIcS1_SaIcEEESt13_Ios_Openmode@GLIBCXX_3.4.21>
    37bb:	0f 1f 44 00 00       	nopl   0x0(%rax,%rax,1)

00000000000037c0 <memmove@plt>:
    37c0:	f3 0f 1e fa          	endbr64 
    37c4:	f2 ff 25 7d 27 05 00 	bnd jmpq *0x5277d(%rip)        # 55f48 <memmove@GLIBC_2.2.5>
    37cb:	0f 1f 44 00 00       	nopl   0x0(%rax,%rax,1)

00000000000037d0 <__cxa_end_catch@plt>:
    37d0:	f3 0f 1e fa          	endbr64 
    37d4:	f2 ff 25 75 27 05 00 	bnd jmpq *0x52775(%rip)        # 55f50 <__cxa_end_catch@CXXABI_1.3>
    37db:	0f 1f 44 00 00       	nopl   0x0(%rax,%rax,1)

00000000000037e0 <_ZNSt13basic_fstreamIcSt11char_traitsIcEEC1ERKNSt7__cxx1112basic_stringIcS1_SaIcEEESt13_Ios_Openmode@plt>:
    37e0:	f3 0f 1e fa          	endbr64 
    37e4:	f2 ff 25 6d 27 05 00 	bnd jmpq *0x5276d(%rip)        # 55f58 <_ZNSt13basic_fstreamIcSt11char_traitsIcEEC1ERKNSt7__cxx1112basic_stringIcS1_SaIcEEESt13_Ios_Openmode@GLIBCXX_3.4.21>
    37eb:	0f 1f 44 00 00       	nopl   0x0(%rax,%rax,1)

00000000000037f0 <_ZNSt7__cxx1119basic_istringstreamIcSt11char_traitsIcESaIcEEC1ERKNS_12basic_stringIcS2_S3_EESt13_Ios_Openmode@plt>:
    37f0:	f3 0f 1e fa          	endbr64 
    37f4:	f2 ff 25 65 27 05 00 	bnd jmpq *0x52765(%rip)        # 55f60 <_ZNSt7__cxx1119basic_istringstreamIcSt11char_traitsIcESaIcEEC1ERKNS_12basic_stringIcS2_S3_EESt13_Ios_Openmode@GLIBCXX_3.4.21>
    37fb:	0f 1f 44 00 00       	nopl   0x0(%rax,%rax,1)

0000000000003800 <__cxa_throw@plt>:
    3800:	f3 0f 1e fa          	endbr64 
    3804:	f2 ff 25 5d 27 05 00 	bnd jmpq *0x5275d(%rip)        # 55f68 <__cxa_throw@CXXABI_1.3>
    380b:	0f 1f 44 00 00       	nopl   0x0(%rax,%rax,1)

0000000000003810 <_ZNSt13basic_fstreamIcSt11char_traitsIcEE7is_openEv@plt>:
    3810:	f3 0f 1e fa          	endbr64 
    3814:	f2 ff 25 55 27 05 00 	bnd jmpq *0x52755(%rip)        # 55f70 <_ZNSt13basic_fstreamIcSt11char_traitsIcEE7is_openEv@GLIBCXX_3.4>
    381b:	0f 1f 44 00 00       	nopl   0x0(%rax,%rax,1)

0000000000003820 <_ZNSolsEi@plt>:
    3820:	f3 0f 1e fa          	endbr64 
    3824:	f2 ff 25 4d 27 05 00 	bnd jmpq *0x5274d(%rip)        # 55f78 <_ZNSolsEi@GLIBCXX_3.4>
    382b:	0f 1f 44 00 00       	nopl   0x0(%rax,%rax,1)

0000000000003830 <pow@plt>:
    3830:	f3 0f 1e fa          	endbr64 
    3834:	f2 ff 25 45 27 05 00 	bnd jmpq *0x52745(%rip)        # 55f80 <pow@GLIBC_2.29>
    383b:	0f 1f 44 00 00       	nopl   0x0(%rax,%rax,1)

0000000000003840 <_Unwind_Resume@plt>:
    3840:	f3 0f 1e fa          	endbr64 
    3844:	f2 ff 25 3d 27 05 00 	bnd jmpq *0x5273d(%rip)        # 55f88 <_Unwind_Resume@GCC_3.0>
    384b:	0f 1f 44 00 00       	nopl   0x0(%rax,%rax,1)

0000000000003850 <_ZNSaIcEC1Ev@plt>:
    3850:	f3 0f 1e fa          	endbr64 
    3854:	f2 ff 25 35 27 05 00 	bnd jmpq *0x52735(%rip)        # 55f90 <_ZNSaIcEC1Ev@GLIBCXX_3.4>
    385b:	0f 1f 44 00 00       	nopl   0x0(%rax,%rax,1)

0000000000003860 <__cxa_guard_acquire@plt>:
    3860:	f3 0f 1e fa          	endbr64 
    3864:	f2 ff 25 2d 27 05 00 	bnd jmpq *0x5272d(%rip)        # 55f98 <__cxa_guard_acquire@CXXABI_1.3>
    386b:	0f 1f 44 00 00       	nopl   0x0(%rax,%rax,1)

0000000000003870 <_ZSt7getlineIcSt11char_traitsIcESaIcEERSt13basic_istreamIT_T0_ES7_RNSt7__cxx1112basic_stringIS4_S5_T1_EES4_@plt>:
    3870:	f3 0f 1e fa          	endbr64 
    3874:	f2 ff 25 25 27 05 00 	bnd jmpq *0x52725(%rip)        # 55fa0 <_ZSt7getlineIcSt11char_traitsIcESaIcEERSt13basic_istreamIT_T0_ES7_RNSt7__cxx1112basic_stringIS4_S5_T1_EES4_@GLIBCXX_3.4.21>
    387b:	0f 1f 44 00 00       	nopl   0x0(%rax,%rax,1)

0000000000003880 <_ZNSolsEd@plt>:
    3880:	f3 0f 1e fa          	endbr64 
    3884:	f2 ff 25 1d 27 05 00 	bnd jmpq *0x5271d(%rip)        # 55fa8 <_ZNSolsEd@GLIBCXX_3.4>
    388b:	0f 1f 44 00 00       	nopl   0x0(%rax,%rax,1)

0000000000003890 <_ZNSt7__cxx1112basic_stringIcSt11char_traitsIcESaIcEE6appendERKS4_@plt>:
    3890:	f3 0f 1e fa          	endbr64 
    3894:	f2 ff 25 15 27 05 00 	bnd jmpq *0x52715(%rip)        # 55fb0 <_ZNSt7__cxx1112basic_stringIcSt11char_traitsIcESaIcEE6appendERKS4_@GLIBCXX_3.4.21>
    389b:	0f 1f 44 00 00       	nopl   0x0(%rax,%rax,1)

Disassembly of section .text:

00000000000038a0 <_start>:
    38a0:	f3 0f 1e fa          	endbr64 
    38a4:	31 ed                	xor    %ebp,%ebp
    38a6:	49 89 d1             	mov    %rdx,%r9
    38a9:	5e                   	pop    %rsi
    38aa:	48 89 e2             	mov    %rsp,%rdx
    38ad:	48 83 e4 f0          	and    $0xfffffffffffffff0,%rsp
    38b1:	50                   	push   %rax
    38b2:	54                   	push   %rsp
    38b3:	4c 8d 05 b6 fe 02 00 	lea    0x2feb6(%rip),%r8        # 33770 <__libc_csu_fini>
    38ba:	48 8d 0d 3f fe 02 00 	lea    0x2fe3f(%rip),%rcx        # 33700 <__libc_csu_init>
    38c1:	48 8d 3d 4b fa 02 00 	lea    0x2fa4b(%rip),%rdi        # 33313 <main>
    38c8:	ff 15 12 27 05 00    	callq  *0x52712(%rip)        # 55fe0 <__libc_start_main@GLIBC_2.2.5>
    38ce:	f4                   	hlt    
    38cf:	90                   	nop

00000000000038d0 <deregister_tm_clones>:
    38d0:	48 8d 3d 41 27 05 00 	lea    0x52741(%rip),%rdi        # 56018 <__TMC_END__>
    38d7:	48 8d 05 3a 27 05 00 	lea    0x5273a(%rip),%rax        # 56018 <__TMC_END__>
    38de:	48 39 f8             	cmp    %rdi,%rax
    38e1:	74 15                	je     38f8 <deregister_tm_clones+0x28>
    38e3:	48 8b 05 ee 26 05 00 	mov    0x526ee(%rip),%rax        # 55fd8 <_ITM_deregisterTMCloneTable>
    38ea:	48 85 c0             	test   %rax,%rax
    38ed:	74 09                	je     38f8 <deregister_tm_clones+0x28>
    38ef:	ff e0                	jmpq   *%rax
    38f1:	0f 1f 80 00 00 00 00 	nopl   0x0(%rax)
    38f8:	c3                   	retq   
    38f9:	0f 1f 80 00 00 00 00 	nopl   0x0(%rax)

0000000000003900 <register_tm_clones>:
    3900:	48 8d 3d 11 27 05 00 	lea    0x52711(%rip),%rdi        # 56018 <__TMC_END__>
    3907:	48 8d 35 0a 27 05 00 	lea    0x5270a(%rip),%rsi        # 56018 <__TMC_END__>
    390e:	48 29 fe             	sub    %rdi,%rsi
    3911:	48 89 f0             	mov    %rsi,%rax
    3914:	48 c1 ee 3f          	shr    $0x3f,%rsi
    3918:	48 c1 f8 03          	sar    $0x3,%rax
    391c:	48 01 c6             	add    %rax,%rsi
    391f:	48 d1 fe             	sar    %rsi
    3922:	74 14                	je     3938 <register_tm_clones+0x38>
    3924:	48 8b 05 c5 26 05 00 	mov    0x526c5(%rip),%rax        # 55ff0 <_ITM_registerTMCloneTable>
    392b:	48 85 c0             	test   %rax,%rax
    392e:	74 08                	je     3938 <register_tm_clones+0x38>
    3930:	ff e0                	jmpq   *%rax
    3932:	66 0f 1f 44 00 00    	nopw   0x0(%rax,%rax,1)
    3938:	c3                   	retq   
    3939:	0f 1f 80 00 00 00 00 	nopl   0x0(%rax)

0000000000003940 <__do_global_dtors_aux>:
    3940:	f3 0f 1e fa          	endbr64 
    3944:	80 3d 05 28 05 00 00 	cmpb   $0x0,0x52805(%rip)        # 56150 <completed.8060>
    394b:	75 2b                	jne    3978 <__do_global_dtors_aux+0x38>
    394d:	55                   	push   %rbp
    394e:	48 83 3d 62 26 05 00 	cmpq   $0x0,0x52662(%rip)        # 55fb8 <__cxa_finalize@GLIBC_2.2.5>
    3955:	00 
    3956:	48 89 e5             	mov    %rsp,%rbp
    3959:	74 0c                	je     3967 <__do_global_dtors_aux+0x27>
    395b:	48 8b 3d a6 26 05 00 	mov    0x526a6(%rip),%rdi        # 56008 <__dso_handle>
    3962:	e8 f9 fa ff ff       	callq  3460 <__cxa_finalize@plt>
    3967:	e8 64 ff ff ff       	callq  38d0 <deregister_tm_clones>
    396c:	c6 05 dd 27 05 00 01 	movb   $0x1,0x527dd(%rip)        # 56150 <completed.8060>
    3973:	5d                   	pop    %rbp
    3974:	c3                   	retq   
    3975:	0f 1f 00             	nopl   (%rax)
    3978:	c3                   	retq   
    3979:	0f 1f 80 00 00 00 00 	nopl   0x0(%rax)

0000000000003980 <frame_dummy>:
    3980:	f3 0f 1e fa          	endbr64 
    3984:	e9 77 ff ff ff       	jmpq   3900 <register_tm_clones>

0000000000003989 <_Z3runibPc>:
    3989:	f3 0f 1e fa          	endbr64 
    398d:	55                   	push   %rbp
    398e:	48 89 e5             	mov    %rsp,%rbp
    3991:	53                   	push   %rbx
    3992:	48 81 ec 18 01 00 00 	sub    $0x118,%rsp
    3999:	89 bd ec fe ff ff    	mov    %edi,-0x114(%rbp)
    399f:	89 f0                	mov    %esi,%eax
    39a1:	48 89 95 e0 fe ff ff 	mov    %rdx,-0x120(%rbp)
    39a8:	88 85 e8 fe ff ff    	mov    %al,-0x118(%rbp)
    39ae:	64 48 8b 04 25 28 00 	mov    %fs:0x28,%rax
    39b5:	00 00 
    39b7:	48 89 45 e8          	mov    %rax,-0x18(%rbp)
    39bb:	31 c0                	xor    %eax,%eax
    39bd:	48 8d 85 30 ff ff ff 	lea    -0xd0(%rbp),%rax
    39c4:	48 89 c7             	mov    %rax,%rdi
    39c7:	e8 84 fe ff ff       	callq  3850 <_ZNSaIcEC1Ev@plt>
    39cc:	48 8d 95 30 ff ff ff 	lea    -0xd0(%rbp),%rdx
    39d3:	48 8d 45 a0          	lea    -0x60(%rbp),%rax
    39d7:	48 8d 35 2a 08 03 00 	lea    0x3082a(%rip),%rsi        # 34208 <_ZL17HIGH_MARGIN_SCALE+0x8>
    39de:	48 89 c7             	mov    %rax,%rdi
    39e1:	e8 3a fd ff ff       	callq  3720 <_ZNSt7__cxx1112basic_stringIcSt11char_traitsIcESaIcEEC1EPKcRKS3_@plt>
    39e6:	48 8d 85 10 ff ff ff 	lea    -0xf0(%rbp),%rax
    39ed:	48 89 c7             	mov    %rax,%rdi
    39f0:	e8 5b fe ff ff       	callq  3850 <_ZNSaIcEC1Ev@plt>
    39f5:	48 8d 95 10 ff ff ff 	lea    -0xf0(%rbp),%rdx
    39fc:	48 8b 8d e0 fe ff ff 	mov    -0x120(%rbp),%rcx
    3a03:	48 8d 45 80          	lea    -0x80(%rbp),%rax
    3a07:	48 89 ce             	mov    %rcx,%rsi
    3a0a:	48 89 c7             	mov    %rax,%rdi
    3a0d:	e8 0e fd ff ff       	callq  3720 <_ZNSt7__cxx1112basic_stringIcSt11char_traitsIcESaIcEEC1EPKcRKS3_@plt>
    3a12:	48 8d 45 c0          	lea    -0x40(%rbp),%rax
    3a16:	48 8d 55 a0          	lea    -0x60(%rbp),%rdx
    3a1a:	48 8d 4d 80          	lea    -0x80(%rbp),%rcx
    3a1e:	48 89 ce             	mov    %rcx,%rsi
    3a21:	48 89 c7             	mov    %rax,%rdi
    3a24:	e8 27 36 00 00       	callq  7050 <_ZStplIcSt11char_traitsIcESaIcEENSt7__cxx1112basic_stringIT_T0_T1_EEOS8_S9_>
    3a29:	48 8d 45 c0          	lea    -0x40(%rbp),%rax
    3a2d:	48 89 c7             	mov    %rax,%rdi
    3a30:	e8 0f 1a 00 00       	callq  5444 <_Z24construct_correct_vectorNSt7__cxx1112basic_stringIcSt11char_traitsIcESaIcEEE>
    3a35:	48 8d 45 c0          	lea    -0x40(%rbp),%rax
    3a39:	48 89 c7             	mov    %rax,%rdi
    3a3c:	e8 6f fb ff ff       	callq  35b0 <_ZNSt7__cxx1112basic_stringIcSt11char_traitsIcESaIcEED1Ev@plt>
    3a41:	48 8d 45 80          	lea    -0x80(%rbp),%rax
    3a45:	48 89 c7             	mov    %rax,%rdi
    3a48:	e8 63 fb ff ff       	callq  35b0 <_ZNSt7__cxx1112basic_stringIcSt11char_traitsIcESaIcEED1Ev@plt>
    3a4d:	48 8d 85 10 ff ff ff 	lea    -0xf0(%rbp),%rax
    3a54:	48 89 c7             	mov    %rax,%rdi
    3a57:	e8 44 fc ff ff       	callq  36a0 <_ZNSaIcED1Ev@plt>
    3a5c:	48 8d 45 a0          	lea    -0x60(%rbp),%rax
    3a60:	48 89 c7             	mov    %rax,%rdi
    3a63:	e8 48 fb ff ff       	callq  35b0 <_ZNSt7__cxx1112basic_stringIcSt11char_traitsIcESaIcEED1Ev@plt>
    3a68:	48 8d 85 30 ff ff ff 	lea    -0xd0(%rbp),%rax
    3a6f:	48 89 c7             	mov    %rax,%rdi
    3a72:	e8 29 fc ff ff       	callq  36a0 <_ZNSaIcED1Ev@plt>
    3a77:	48 8d 85 30 ff ff ff 	lea    -0xd0(%rbp),%rax
    3a7e:	48 89 c7             	mov    %rax,%rdi
    3a81:	e8 ca fd ff ff       	callq  3850 <_ZNSaIcEC1Ev@plt>
    3a86:	48 8d 95 30 ff ff ff 	lea    -0xd0(%rbp),%rdx
    3a8d:	48 8d 45 a0          	lea    -0x60(%rbp),%rax
    3a91:	48 8d 35 7c 07 03 00 	lea    0x3077c(%rip),%rsi        # 34214 <_ZL17HIGH_MARGIN_SCALE+0x14>
    3a98:	48 89 c7             	mov    %rax,%rdi
    3a9b:	e8 80 fc ff ff       	callq  3720 <_ZNSt7__cxx1112basic_stringIcSt11char_traitsIcESaIcEEC1EPKcRKS3_@plt>
    3aa0:	48 8d 85 10 ff ff ff 	lea    -0xf0(%rbp),%rax
    3aa7:	48 89 c7             	mov    %rax,%rdi
    3aaa:	e8 a1 fd ff ff       	callq  3850 <_ZNSaIcEC1Ev@plt>
    3aaf:	48 8d 95 10 ff ff ff 	lea    -0xf0(%rbp),%rdx
    3ab6:	48 8b 8d e0 fe ff ff 	mov    -0x120(%rbp),%rcx
    3abd:	48 8d 45 80          	lea    -0x80(%rbp),%rax
    3ac1:	48 89 ce             	mov    %rcx,%rsi
    3ac4:	48 89 c7             	mov    %rax,%rdi
    3ac7:	e8 54 fc ff ff       	callq  3720 <_ZNSt7__cxx1112basic_stringIcSt11char_traitsIcESaIcEEC1EPKcRKS3_@plt>
    3acc:	48 8d 45 c0          	lea    -0x40(%rbp),%rax
    3ad0:	48 8d 55 a0          	lea    -0x60(%rbp),%rdx
    3ad4:	48 8d 4d 80          	lea    -0x80(%rbp),%rcx
    3ad8:	48 89 ce             	mov    %rcx,%rsi
    3adb:	48 89 c7             	mov    %rax,%rdi
    3ade:	e8 6d 35 00 00       	callq  7050 <_ZStplIcSt11char_traitsIcESaIcEENSt7__cxx1112basic_stringIT_T0_T1_EEOS8_S9_>
    3ae3:	48 8d 45 c0          	lea    -0x40(%rbp),%rax
    3ae7:	48 89 c7             	mov    %rax,%rdi
    3aea:	e8 10 07 00 00       	callq  41ff <_Z11createTeamsNSt7__cxx1112basic_stringIcSt11char_traitsIcESaIcEEE>
    3aef:	48 8d 45 c0          	lea    -0x40(%rbp),%rax
    3af3:	48 89 c7             	mov    %rax,%rdi
    3af6:	e8 b5 fa ff ff       	callq  35b0 <_ZNSt7__cxx1112basic_stringIcSt11char_traitsIcESaIcEED1Ev@plt>
    3afb:	48 8d 45 80          	lea    -0x80(%rbp),%rax
    3aff:	48 89 c7             	mov    %rax,%rdi
    3b02:	e8 a9 fa ff ff       	callq  35b0 <_ZNSt7__cxx1112basic_stringIcSt11char_traitsIcESaIcEED1Ev@plt>
    3b07:	48 8d 85 10 ff ff ff 	lea    -0xf0(%rbp),%rax
    3b0e:	48 89 c7             	mov    %rax,%rdi
    3b11:	e8 8a fb ff ff       	callq  36a0 <_ZNSaIcED1Ev@plt>
    3b16:	48 8d 45 a0          	lea    -0x60(%rbp),%rax
    3b1a:	48 89 c7             	mov    %rax,%rdi
    3b1d:	e8 8e fa ff ff       	callq  35b0 <_ZNSt7__cxx1112basic_stringIcSt11char_traitsIcESaIcEED1Ev@plt>
    3b22:	48 8d 85 30 ff ff ff 	lea    -0xd0(%rbp),%rax
    3b29:	48 89 c7             	mov    %rax,%rdi
    3b2c:	e8 6f fb ff ff       	callq  36a0 <_ZNSaIcED1Ev@plt>
    3b31:	0f b6 9d e8 fe ff ff 	movzbl -0x118(%rbp),%ebx
    3b38:	48 8d 85 30 ff ff ff 	lea    -0xd0(%rbp),%rax
    3b3f:	48 89 c7             	mov    %rax,%rdi
    3b42:	e8 09 fd ff ff       	callq  3850 <_ZNSaIcEC1Ev@plt>
    3b47:	48 8d 95 30 ff ff ff 	lea    -0xd0(%rbp),%rdx
    3b4e:	48 8d 45 a0          	lea    -0x60(%rbp),%rax
    3b52:	48 8d 35 c5 06 03 00 	lea    0x306c5(%rip),%rsi        # 3421e <_ZL17HIGH_MARGIN_SCALE+0x1e>
    3b59:	48 89 c7             	mov    %rax,%rdi
    3b5c:	e8 bf fb ff ff       	callq  3720 <_ZNSt7__cxx1112basic_stringIcSt11char_traitsIcESaIcEEC1EPKcRKS3_@plt>
    3b61:	48 8d 85 10 ff ff ff 	lea    -0xf0(%rbp),%rax
    3b68:	48 89 c7             	mov    %rax,%rdi
    3b6b:	e8 e0 fc ff ff       	callq  3850 <_ZNSaIcEC1Ev@plt>
    3b70:	48 8d 95 10 ff ff ff 	lea    -0xf0(%rbp),%rdx
    3b77:	48 8b 8d e0 fe ff ff 	mov    -0x120(%rbp),%rcx
    3b7e:	48 8d 45 80          	lea    -0x80(%rbp),%rax
    3b82:	48 89 ce             	mov    %rcx,%rsi
    3b85:	48 89 c7             	mov    %rax,%rdi
    3b88:	e8 93 fb ff ff       	callq  3720 <_ZNSt7__cxx1112basic_stringIcSt11char_traitsIcESaIcEEC1EPKcRKS3_@plt>
    3b8d:	48 8d 45 c0          	lea    -0x40(%rbp),%rax
    3b91:	48 8d 55 a0          	lea    -0x60(%rbp),%rdx
    3b95:	48 8d 4d 80          	lea    -0x80(%rbp),%rcx
    3b99:	48 89 ce             	mov    %rcx,%rsi
    3b9c:	48 89 c7             	mov    %rax,%rdi
    3b9f:	e8 ac 34 00 00       	callq  7050 <_ZStplIcSt11char_traitsIcESaIcEENSt7__cxx1112basic_stringIT_T0_T1_EEOS8_S9_>
    3ba4:	8b 8d ec fe ff ff    	mov    -0x114(%rbp),%ecx
    3baa:	48 8d 45 c0          	lea    -0x40(%rbp),%rax
    3bae:	89 da                	mov    %ebx,%edx
    3bb0:	89 ce                	mov    %ecx,%esi
    3bb2:	48 89 c7             	mov    %rax,%rdi
    3bb5:	e8 d6 08 00 00       	callq  4490 <_Z9loadGamesNSt7__cxx1112basic_stringIcSt11char_traitsIcESaIcEEEib>
    3bba:	48 8d 45 c0          	lea    -0x40(%rbp),%rax
    3bbe:	48 89 c7             	mov    %rax,%rdi
    3bc1:	e8 ea f9 ff ff       	callq  35b0 <_ZNSt7__cxx1112basic_stringIcSt11char_traitsIcESaIcEED1Ev@plt>
    3bc6:	48 8d 45 80          	lea    -0x80(%rbp),%rax
    3bca:	48 89 c7             	mov    %rax,%rdi
    3bcd:	e8 de f9 ff ff       	callq  35b0 <_ZNSt7__cxx1112basic_stringIcSt11char_traitsIcESaIcEED1Ev@plt>
    3bd2:	48 8d 85 10 ff ff ff 	lea    -0xf0(%rbp),%rax
    3bd9:	48 89 c7             	mov    %rax,%rdi
    3bdc:	e8 bf fa ff ff       	callq  36a0 <_ZNSaIcED1Ev@plt>
    3be1:	48 8d 45 a0          	lea    -0x60(%rbp),%rax
    3be5:	48 89 c7             	mov    %rax,%rdi
    3be8:	e8 c3 f9 ff ff       	callq  35b0 <_ZNSt7__cxx1112basic_stringIcSt11char_traitsIcESaIcEED1Ev@plt>
    3bed:	48 8d 85 30 ff ff ff 	lea    -0xd0(%rbp),%rax
    3bf4:	48 89 c7             	mov    %rax,%rdi
    3bf7:	e8 a4 fa ff ff       	callq  36a0 <_ZNSaIcED1Ev@plt>
    3bfc:	48 8d 85 30 ff ff ff 	lea    -0xd0(%rbp),%rax
    3c03:	48 8d 35 66 26 05 00 	lea    0x52666(%rip),%rsi        # 56270 <gameMatrix>
    3c0a:	48 89 c7             	mov    %rax,%rdi
    3c0d:	e8 f8 38 00 00       	callq  750a <_ZNK5Eigen10MatrixBaseINS_6MatrixIdLin1ELin1ELi0ELin1ELin1EEEE2luEv>
    3c12:	48 8d 85 30 ff ff ff 	lea    -0xd0(%rbp),%rax
    3c19:	48 8d 35 70 26 05 00 	lea    0x52670(%rip),%rsi        # 56290 <scores>
    3c20:	48 89 c7             	mov    %rax,%rdi
    3c23:	e8 96 39 00 00       	callq  75be <_ZNK5Eigen12PartialPivLUINS_6MatrixIdLin1ELin1ELi0ELin1ELin1EEEE5solveINS1_IdLin1ELi1ELi0ELin1ELi1EEEEEKNS_5SolveIS3_T_EERKNS_10MatrixBaseIS7_EE>
    3c28:	48 89 85 10 ff ff ff 	mov    %rax,-0xf0(%rbp)
    3c2f:	48 89 95 18 ff ff ff 	mov    %rdx,-0xe8(%rbp)
    3c36:	48 8d 85 10 ff ff ff 	lea    -0xf0(%rbp),%rax
    3c3d:	48 89 c6             	mov    %rax,%rsi
    3c40:	48 8d 3d 59 26 05 00 	lea    0x52659(%rip),%rdi        # 562a0 <solutionVector>
    3c47:	e8 00 3a 00 00       	callq  764c <_ZN5Eigen6MatrixIdLin1ELi1ELi0ELin1ELi1EEaSINS_5SolveINS_12PartialPivLUINS0_IdLin1ELin1ELi0ELin1ELin1EEEEES1_EEEERS1_RKNS_9DenseBaseIT_EE>
    3c4c:	48 8d 85 30 ff ff ff 	lea    -0xd0(%rbp),%rax
    3c53:	48 89 c7             	mov    %rax,%rdi
    3c56:	e8 9d 31 00 00       	callq  6df8 <_ZN5Eigen12PartialPivLUINS_6MatrixIdLin1ELin1ELi0ELin1ELin1EEEED1Ev>
    3c5b:	48 8d 85 00 ff ff ff 	lea    -0x100(%rbp),%rax
    3c62:	48 89 c7             	mov    %rax,%rdi
    3c65:	e8 0c 3a 00 00       	callq  7676 <_ZNSt17_Rb_tree_iteratorISt4pairIKiP4TeamEEC1Ev>
    3c6a:	48 8d 3d cf 25 05 00 	lea    0x525cf(%rip),%rdi        # 56240 <teamMap>
    3c71:	e8 1a 3a 00 00       	callq  7690 <_ZNSt3mapIiP4TeamSt4lessIiESaISt4pairIKiS1_EEE5beginEv>
    3c76:	48 89 85 00 ff ff ff 	mov    %rax,-0x100(%rbp)
    3c7d:	48 8d 3d bc 25 05 00 	lea    0x525bc(%rip),%rdi        # 56240 <teamMap>
    3c84:	e8 25 3a 00 00       	callq  76ae <_ZNSt3mapIiP4TeamSt4lessIiESaISt4pairIKiS1_EEE3endEv>
    3c89:	48 89 85 30 ff ff ff 	mov    %rax,-0xd0(%rbp)
    3c90:	48 8d 95 30 ff ff ff 	lea    -0xd0(%rbp),%rdx
    3c97:	48 8d 85 00 ff ff ff 	lea    -0x100(%rbp),%rax
    3c9e:	48 89 d6             	mov    %rdx,%rsi
    3ca1:	48 89 c7             	mov    %rax,%rdi
    3ca4:	e8 23 3a 00 00       	callq  76cc <_ZStneRKSt17_Rb_tree_iteratorISt4pairIKiP4TeamEES7_>
    3ca9:	84 c0                	test   %al,%al
    3cab:	0f 84 9f 00 00 00    	je     3d50 <_Z3runibPc+0x3c7>
    3cb1:	48 8d 85 00 ff ff ff 	lea    -0x100(%rbp),%rax
    3cb8:	48 89 c7             	mov    %rax,%rdi
    3cbb:	e8 5e 3a 00 00       	callq  771e <_ZNKSt17_Rb_tree_iteratorISt4pairIKiP4TeamEEptEv>
    3cc0:	48 8b 58 08          	mov    0x8(%rax),%rbx
    3cc4:	48 8d 85 00 ff ff ff 	lea    -0x100(%rbp),%rax
    3ccb:	48 89 c7             	mov    %rax,%rdi
    3cce:	e8 4b 3a 00 00       	callq  771e <_ZNKSt17_Rb_tree_iteratorISt4pairIKiP4TeamEEptEv>
    3cd3:	48 8b 40 08          	mov    0x8(%rax),%rax
    3cd7:	48 89 c7             	mov    %rax,%rdi
    3cda:	e8 ed e8 02 00       	callq  325cc <_ZN4Team5getIdEv>
    3cdf:	83 e8 01             	sub    $0x1,%eax
    3ce2:	48 63 d0             	movslq %eax,%rdx
    3ce5:	48 8d 85 30 ff ff ff 	lea    -0xd0(%rbp),%rax
    3cec:	48 8d 35 ad 25 05 00 	lea    0x525ad(%rip),%rsi        # 562a0 <solutionVector>
    3cf3:	48 89 c7             	mov    %rax,%rdi
    3cf6:	e8 45 3a 00 00       	callq  7740 <_ZN5Eigen9DenseBaseINS_6MatrixIdLin1ELi1ELi0ELin1ELi1EEEE3rowEl>
    3cfb:	48 8d 85 30 ff ff ff 	lea    -0xd0(%rbp),%rax
    3d02:	48 89 c7             	mov    %rax,%rdi
    3d05:	e8 76 3a 00 00       	callq  7780 <_ZNK5Eigen9DenseBaseINS_5BlockINS_6MatrixIdLin1ELi1ELi0ELin1ELi1EEELi1ELi1ELb0EEEE5valueEv>
    3d0a:	48 8b 00             	mov    (%rax),%rax
    3d0d:	66 48 0f 6e c0       	movq   %rax,%xmm0
    3d12:	48 89 df             	mov    %rbx,%rdi
    3d15:	e8 4a e9 02 00       	callq  32664 <_ZN4Team7addRankEd>
    3d1a:	48 8d 85 00 ff ff ff 	lea    -0x100(%rbp),%rax
    3d21:	48 89 c7             	mov    %rax,%rdi
    3d24:	e8 f5 39 00 00       	callq  771e <_ZNKSt17_Rb_tree_iteratorISt4pairIKiP4TeamEEptEv>
    3d29:	48 8b 40 08          	mov    0x8(%rax),%rax
    3d2d:	48 89 c6             	mov    %rax,%rsi
    3d30:	48 8d 3d 69 24 05 00 	lea    0x52469(%rip),%rdi        # 561a0 <resultVector>
    3d37:	e8 b8 3a 00 00       	callq  77f4 <_ZNSt6vectorI4TeamSaIS0_EE9push_backERKS0_>
    3d3c:	48 8d 85 00 ff ff ff 	lea    -0x100(%rbp),%rax
    3d43:	48 89 c7             	mov    %rax,%rdi
    3d46:	e8 a7 39 00 00       	callq  76f2 <_ZNSt17_Rb_tree_iteratorISt4pairIKiP4TeamEEppEv>
    3d4b:	e9 2d ff ff ff       	jmpq   3c7d <_Z3runibPc+0x2f4>
    3d50:	48 8d 3d 49 24 05 00 	lea    0x52449(%rip),%rdi        # 561a0 <resultVector>
    3d57:	e8 64 3b 00 00       	callq  78c0 <_ZNSt6vectorI4TeamSaIS0_EE3endEv>
    3d5c:	48 89 c3             	mov    %rax,%rbx
    3d5f:	48 8d 3d 3a 24 05 00 	lea    0x5243a(%rip),%rdi        # 561a0 <resultVector>
    3d66:	e8 09 3b 00 00       	callq  7874 <_ZNSt6vectorI4TeamSaIS0_EE5beginEv>
    3d6b:	48 89 de             	mov    %rbx,%rsi
    3d6e:	48 89 c7             	mov    %rax,%rdi
    3d71:	e8 9a 3b 00 00       	callq  7910 <_ZSt4sortIN9__gnu_cxx17__normal_iteratorIP4TeamSt6vectorIS2_SaIS2_EEEEEvT_S8_>
    3d76:	48 c7 85 08 ff ff ff 	movq   $0x0,-0xf8(%rbp)
    3d7d:	00 00 00 00 
    3d81:	c7 85 fc fe ff ff 00 	movl   $0x0,-0x104(%rbp)
    3d88:	00 00 00 
    3d8b:	48 8d 3d 0e 24 05 00 	lea    0x5240e(%rip),%rdi        # 561a0 <resultVector>
    3d92:	e8 29 3b 00 00       	callq  78c0 <_ZNSt6vectorI4TeamSaIS0_EE3endEv>
    3d97:	48 89 85 30 ff ff ff 	mov    %rax,-0xd0(%rbp)
    3d9e:	48 8d 85 30 ff ff ff 	lea    -0xd0(%rbp),%rax
    3da5:	be 01 00 00 00       	mov    $0x1,%esi
    3daa:	48 89 c7             	mov    %rax,%rdi
    3dad:	e8 b0 3b 00 00       	callq  7962 <_ZNK9__gnu_cxx17__normal_iteratorIP4TeamSt6vectorIS1_SaIS1_EEEmiEl>
    3db2:	48 89 85 08 ff ff ff 	mov    %rax,-0xf8(%rbp)
    3db9:	48 8d 3d e0 23 05 00 	lea    0x523e0(%rip),%rdi        # 561a0 <resultVector>
    3dc0:	e8 af 3a 00 00       	callq  7874 <_ZNSt6vectorI4TeamSaIS0_EE5beginEv>
    3dc5:	48 89 85 10 ff ff ff 	mov    %rax,-0xf0(%rbp)
    3dcc:	48 8d 85 10 ff ff ff 	lea    -0xf0(%rbp),%rax
    3dd3:	be 01 00 00 00       	mov    $0x1,%esi
    3dd8:	48 89 c7             	mov    %rax,%rdi
    3ddb:	e8 82 3b 00 00       	callq  7962 <_ZNK9__gnu_cxx17__normal_iteratorIP4TeamSt6vectorIS1_SaIS1_EEEmiEl>
    3de0:	48 89 85 30 ff ff ff 	mov    %rax,-0xd0(%rbp)
    3de7:	48 8d 95 30 ff ff ff 	lea    -0xd0(%rbp),%rdx
    3dee:	48 8d 85 08 ff ff ff 	lea    -0xf8(%rbp),%rax
    3df5:	48 89 d6             	mov    %rdx,%rsi
    3df8:	48 89 c7             	mov    %rax,%rdi
    3dfb:	e8 d5 3b 00 00       	callq  79d5 <_ZN9__gnu_cxxneIP4TeamSt6vectorIS1_SaIS1_EEEEbRKNS_17__normal_iteratorIT_T0_EESB_>
    3e00:	84 c0                	test   %al,%al
    3e02:	0f 84 c0 00 00 00    	je     3ec8 <_Z3runibPc+0x53f>
    3e08:	48 8d 85 08 ff ff ff 	lea    -0xf8(%rbp),%rax
    3e0f:	48 89 c7             	mov    %rax,%rdi
    3e12:	e8 23 3c 00 00       	callq  7a3a <_ZNK9__gnu_cxx17__normal_iteratorIP4TeamSt6vectorIS1_SaIS1_EEEptEv>
    3e17:	48 89 c7             	mov    %rax,%rdi
    3e1a:	e8 ad e7 02 00       	callq  325cc <_ZN4Team5getIdEv>
    3e1f:	89 85 30 ff ff ff    	mov    %eax,-0xd0(%rbp)
    3e25:	48 8d 85 30 ff ff ff 	lea    -0xd0(%rbp),%rax
    3e2c:	48 89 c6             	mov    %rax,%rsi
    3e2f:	48 8d 3d 8a 23 05 00 	lea    0x5238a(%rip),%rdi        # 561c0 <predicted_ids>
    3e36:	e8 15 3c 00 00       	callq  7a50 <_ZNSt6vectorIiSaIiEE9push_backEOi>
    3e3b:	48 8d 85 08 ff ff ff 	lea    -0xf8(%rbp),%rax
    3e42:	48 89 c7             	mov    %rax,%rdi
    3e45:	e8 f0 3b 00 00       	callq  7a3a <_ZNK9__gnu_cxx17__normal_iteratorIP4TeamSt6vectorIS1_SaIS1_EEEptEv>
    3e4a:	48 89 c7             	mov    %rax,%rdi
    3e4d:	e8 7a e7 02 00       	callq  325cc <_ZN4Team5getIdEv>
    3e52:	89 c6                	mov    %eax,%esi
    3e54:	48 8d 3d e5 21 05 00 	lea    0x521e5(%rip),%rdi        # 56040 <_ZSt4cout@@GLIBCXX_3.4>
    3e5b:	e8 c0 f9 ff ff       	callq  3820 <_ZNSolsEi@plt>
    3e60:	48 89 c3             	mov    %rax,%rbx
    3e63:	48 8d 85 08 ff ff ff 	lea    -0xf8(%rbp),%rax
    3e6a:	48 89 c7             	mov    %rax,%rdi
    3e6d:	e8 c8 3b 00 00       	callq  7a3a <_ZNK9__gnu_cxx17__normal_iteratorIP4TeamSt6vectorIS1_SaIS1_EEEptEv>
    3e72:	48 89 c2             	mov    %rax,%rdx
    3e75:	48 8d 45 c0          	lea    -0x40(%rbp),%rax
    3e79:	48 89 d6             	mov    %rdx,%rsi
    3e7c:	48 89 c7             	mov    %rax,%rdi
    3e7f:	e8 5e e7 02 00       	callq  325e2 <_ZN4Team7getNameB5cxx11Ev>
    3e84:	48 8d 45 c0          	lea    -0x40(%rbp),%rax
    3e88:	48 89 c6             	mov    %rax,%rsi
    3e8b:	48 89 df             	mov    %rbx,%rdi
    3e8e:	e8 ad f7 ff ff       	callq  3640 <_ZStlsIcSt11char_traitsIcESaIcEERSt13basic_ostreamIT_T0_ES7_RKNSt7__cxx1112basic_stringIS4_S5_T1_EE@plt>
    3e93:	48 89 c2             	mov    %rax,%rdx
    3e96:	48 8b 05 23 21 05 00 	mov    0x52123(%rip),%rax        # 55fc0 <_ZSt4endlIcSt11char_traitsIcEERSt13basic_ostreamIT_T0_ES6_@GLIBCXX_3.4>
    3e9d:	48 89 c6             	mov    %rax,%rsi
    3ea0:	48 89 d7             	mov    %rdx,%rdi
    3ea3:	e8 e8 f7 ff ff       	callq  3690 <_ZNSolsEPFRSoS_E@plt>
    3ea8:	48 8d 45 c0          	lea    -0x40(%rbp),%rax
    3eac:	48 89 c7             	mov    %rax,%rdi
    3eaf:	e8 fc f6 ff ff       	callq  35b0 <_ZNSt7__cxx1112basic_stringIcSt11char_traitsIcESaIcEED1Ev@plt>
    3eb4:	48 8d 85 08 ff ff ff 	lea    -0xf8(%rbp),%rax
    3ebb:	48 89 c7             	mov    %rax,%rdi
    3ebe:	e8 53 3b 00 00       	callq  7a16 <_ZN9__gnu_cxx17__normal_iteratorIP4TeamSt6vectorIS1_SaIS1_EEEmmEv>
    3ec3:	e9 f1 fe ff ff       	jmpq   3db9 <_Z3runibPc+0x430>
    3ec8:	48 8d 85 30 ff ff ff 	lea    -0xd0(%rbp),%rax
    3ecf:	48 8d 35 0a 23 05 00 	lea    0x5230a(%rip),%rsi        # 561e0 <correct_ids>
    3ed6:	48 89 c7             	mov    %rax,%rdi
    3ed9:	e8 a8 3b 00 00       	callq  7a86 <_ZNSt6vectorIiSaIiEEC1ERKS1_>
    3ede:	48 8d 85 10 ff ff ff 	lea    -0xf0(%rbp),%rax
    3ee5:	48 8d 35 d4 22 05 00 	lea    0x522d4(%rip),%rsi        # 561c0 <predicted_ids>
    3eec:	48 89 c7             	mov    %rax,%rdi
    3eef:	e8 92 3b 00 00       	callq  7a86 <_ZNSt6vectorIiSaIiEEC1ERKS1_>
    3ef4:	48 8d 95 30 ff ff ff 	lea    -0xd0(%rbp),%rdx
    3efb:	48 8d 85 10 ff ff ff 	lea    -0xf0(%rbp),%rax
    3f02:	48 89 d6             	mov    %rdx,%rsi
    3f05:	48 89 c7             	mov    %rax,%rdi
    3f08:	e8 35 17 00 00       	callq  5642 <_Z21construct_pred_vectorSt6vectorIiSaIiEES1_>
    3f0d:	48 8d 85 10 ff ff ff 	lea    -0xf0(%rbp),%rax
    3f14:	48 89 c7             	mov    %rax,%rdi
    3f17:	e8 8a 3c 00 00       	callq  7ba6 <_ZNSt6vectorIiSaIiEED1Ev>
    3f1c:	48 8d 85 30 ff ff ff 	lea    -0xd0(%rbp),%rax
    3f23:	48 89 c7             	mov    %rax,%rdi
    3f26:	e8 7b 3c 00 00       	callq  7ba6 <_ZNSt6vectorIiSaIiEED1Ev>
    3f2b:	48 8d 85 30 ff ff ff 	lea    -0xd0(%rbp),%rax
    3f32:	48 8d 35 e7 22 05 00 	lea    0x522e7(%rip),%rsi        # 56220 <correct_rank>
    3f39:	48 89 c7             	mov    %rax,%rdi
    3f3c:	e8 45 3b 00 00       	callq  7a86 <_ZNSt6vectorIiSaIiEEC1ERKS1_>
    3f41:	48 8d 85 10 ff ff ff 	lea    -0xf0(%rbp),%rax
    3f48:	48 8d 35 b1 22 05 00 	lea    0x522b1(%rip),%rsi        # 56200 <predicted_rank>
    3f4f:	48 89 c7             	mov    %rax,%rdi
    3f52:	e8 2f 3b 00 00       	callq  7a86 <_ZNSt6vectorIiSaIiEEC1ERKS1_>
    3f57:	48 8d 95 30 ff ff ff 	lea    -0xd0(%rbp),%rdx
    3f5e:	48 8d 85 10 ff ff ff 	lea    -0xf0(%rbp),%rax
    3f65:	48 89 d6             	mov    %rdx,%rsi
    3f68:	48 89 c7             	mov    %rax,%rdi
    3f6b:	e8 59 18 00 00       	callq  57c9 <_Z9computeSESt6vectorIiSaIiEES1_>
    3f70:	66 48 0f 7e c0       	movq   %xmm0,%rax
    3f75:	48 89 05 5c 23 05 00 	mov    %rax,0x5235c(%rip)        # 562d8 <se>
    3f7c:	48 8d 85 10 ff ff ff 	lea    -0xf0(%rbp),%rax
    3f83:	48 89 c7             	mov    %rax,%rdi
    3f86:	e8 1b 3c 00 00       	callq  7ba6 <_ZNSt6vectorIiSaIiEED1Ev>
    3f8b:	48 8d 85 30 ff ff ff 	lea    -0xd0(%rbp),%rax
    3f92:	48 89 c7             	mov    %rax,%rdi
    3f95:	e8 0c 3c 00 00       	callq  7ba6 <_ZNSt6vectorIiSaIiEED1Ev>
    3f9a:	48 8d 35 87 02 03 00 	lea    0x30287(%rip),%rsi        # 34228 <_ZL17HIGH_MARGIN_SCALE+0x28>
    3fa1:	48 8d 3d 98 20 05 00 	lea    0x52098(%rip),%rdi        # 56040 <_ZSt4cout@@GLIBCXX_3.4>
    3fa8:	e8 b3 f6 ff ff       	callq  3660 <_ZStlsISt11char_traitsIcEERSt13basic_ostreamIcT_ES5_PKc@plt>
    3fad:	48 89 c2             	mov    %rax,%rdx
    3fb0:	48 8b 05 21 23 05 00 	mov    0x52321(%rip),%rax        # 562d8 <se>
    3fb7:	66 48 0f 6e c0       	movq   %rax,%xmm0
    3fbc:	48 89 d7             	mov    %rdx,%rdi
    3fbf:	e8 bc f8 ff ff       	callq  3880 <_ZNSolsEd@plt>
    3fc4:	48 89 c2             	mov    %rax,%rdx
    3fc7:	48 8b 05 f2 1f 05 00 	mov    0x51ff2(%rip),%rax        # 55fc0 <_ZSt4endlIcSt11char_traitsIcEERSt13basic_ostreamIT_T0_ES6_@GLIBCXX_3.4>
    3fce:	48 89 c6             	mov    %rax,%rsi
    3fd1:	48 89 d7             	mov    %rdx,%rdi
    3fd4:	e8 b7 f6 ff ff       	callq  3690 <_ZNSolsEPFRSoS_E@plt>
    3fd9:	90                   	nop
    3fda:	48 8b 45 e8          	mov    -0x18(%rbp),%rax
    3fde:	64 48 33 04 25 28 00 	xor    %fs:0x28,%rax
    3fe5:	00 00 
    3fe7:	0f 84 08 02 00 00    	je     41f5 <_Z3runibPc+0x86c>
    3fed:	e9 fe 01 00 00       	jmpq   41f0 <_Z3runibPc+0x867>
    3ff2:	f3 0f 1e fa          	endbr64 
    3ff6:	48 89 c3             	mov    %rax,%rbx
    3ff9:	48 8d 45 c0          	lea    -0x40(%rbp),%rax
    3ffd:	48 89 c7             	mov    %rax,%rdi
    4000:	e8 ab f5 ff ff       	callq  35b0 <_ZNSt7__cxx1112basic_stringIcSt11char_traitsIcESaIcEED1Ev@plt>
    4005:	eb 07                	jmp    400e <_Z3runibPc+0x685>
    4007:	f3 0f 1e fa          	endbr64 
    400b:	48 89 c3             	mov    %rax,%rbx
    400e:	48 8d 45 80          	lea    -0x80(%rbp),%rax
    4012:	48 89 c7             	mov    %rax,%rdi
    4015:	e8 96 f5 ff ff       	callq  35b0 <_ZNSt7__cxx1112basic_stringIcSt11char_traitsIcESaIcEED1Ev@plt>
    401a:	eb 07                	jmp    4023 <_Z3runibPc+0x69a>
    401c:	f3 0f 1e fa          	endbr64 
    4020:	48 89 c3             	mov    %rax,%rbx
    4023:	48 8d 85 10 ff ff ff 	lea    -0xf0(%rbp),%rax
    402a:	48 89 c7             	mov    %rax,%rdi
    402d:	e8 6e f6 ff ff       	callq  36a0 <_ZNSaIcED1Ev@plt>
    4032:	48 8d 45 a0          	lea    -0x60(%rbp),%rax
    4036:	48 89 c7             	mov    %rax,%rdi
    4039:	e8 72 f5 ff ff       	callq  35b0 <_ZNSt7__cxx1112basic_stringIcSt11char_traitsIcESaIcEED1Ev@plt>
    403e:	eb 07                	jmp    4047 <_Z3runibPc+0x6be>
    4040:	f3 0f 1e fa          	endbr64 
    4044:	48 89 c3             	mov    %rax,%rbx
    4047:	48 8d 85 30 ff ff ff 	lea    -0xd0(%rbp),%rax
    404e:	48 89 c7             	mov    %rax,%rdi
    4051:	e8 4a f6 ff ff       	callq  36a0 <_ZNSaIcED1Ev@plt>
    4056:	48 89 d8             	mov    %rbx,%rax
    4059:	48 89 c7             	mov    %rax,%rdi
    405c:	e8 df f7 ff ff       	callq  3840 <_Unwind_Resume@plt>
    4061:	f3 0f 1e fa          	endbr64 
    4065:	48 89 c3             	mov    %rax,%rbx
    4068:	48 8d 45 c0          	lea    -0x40(%rbp),%rax
    406c:	48 89 c7             	mov    %rax,%rdi
    406f:	e8 3c f5 ff ff       	callq  35b0 <_ZNSt7__cxx1112basic_stringIcSt11char_traitsIcESaIcEED1Ev@plt>
    4074:	eb 07                	jmp    407d <_Z3runibPc+0x6f4>
    4076:	f3 0f 1e fa          	endbr64 
    407a:	48 89 c3             	mov    %rax,%rbx
    407d:	48 8d 45 80          	lea    -0x80(%rbp),%rax
    4081:	48 89 c7             	mov    %rax,%rdi
    4084:	e8 27 f5 ff ff       	callq  35b0 <_ZNSt7__cxx1112basic_stringIcSt11char_traitsIcESaIcEED1Ev@plt>
    4089:	eb 07                	jmp    4092 <_Z3runibPc+0x709>
    408b:	f3 0f 1e fa          	endbr64 
    408f:	48 89 c3             	mov    %rax,%rbx
    4092:	48 8d 85 10 ff ff ff 	lea    -0xf0(%rbp),%rax
    4099:	48 89 c7             	mov    %rax,%rdi
    409c:	e8 ff f5 ff ff       	callq  36a0 <_ZNSaIcED1Ev@plt>
    40a1:	48 8d 45 a0          	lea    -0x60(%rbp),%rax
    40a5:	48 89 c7             	mov    %rax,%rdi
    40a8:	e8 03 f5 ff ff       	callq  35b0 <_ZNSt7__cxx1112basic_stringIcSt11char_traitsIcESaIcEED1Ev@plt>
    40ad:	eb 07                	jmp    40b6 <_Z3runibPc+0x72d>
    40af:	f3 0f 1e fa          	endbr64 
    40b3:	48 89 c3             	mov    %rax,%rbx
    40b6:	48 8d 85 30 ff ff ff 	lea    -0xd0(%rbp),%rax
    40bd:	48 89 c7             	mov    %rax,%rdi
    40c0:	e8 db f5 ff ff       	callq  36a0 <_ZNSaIcED1Ev@plt>
    40c5:	48 89 d8             	mov    %rbx,%rax
    40c8:	48 89 c7             	mov    %rax,%rdi
    40cb:	e8 70 f7 ff ff       	callq  3840 <_Unwind_Resume@plt>
    40d0:	f3 0f 1e fa          	endbr64 
    40d4:	48 89 c3             	mov    %rax,%rbx
    40d7:	48 8d 45 c0          	lea    -0x40(%rbp),%rax
    40db:	48 89 c7             	mov    %rax,%rdi
    40de:	e8 cd f4 ff ff       	callq  35b0 <_ZNSt7__cxx1112basic_stringIcSt11char_traitsIcESaIcEED1Ev@plt>
    40e3:	eb 07                	jmp    40ec <_Z3runibPc+0x763>
    40e5:	f3 0f 1e fa          	endbr64 
    40e9:	48 89 c3             	mov    %rax,%rbx
    40ec:	48 8d 45 80          	lea    -0x80(%rbp),%rax
    40f0:	48 89 c7             	mov    %rax,%rdi
    40f3:	e8 b8 f4 ff ff       	callq  35b0 <_ZNSt7__cxx1112basic_stringIcSt11char_traitsIcESaIcEED1Ev@plt>
    40f8:	eb 07                	jmp    4101 <_Z3runibPc+0x778>
    40fa:	f3 0f 1e fa          	endbr64 
    40fe:	48 89 c3             	mov    %rax,%rbx
    4101:	48 8d 85 10 ff ff ff 	lea    -0xf0(%rbp),%rax
    4108:	48 89 c7             	mov    %rax,%rdi
    410b:	e8 90 f5 ff ff       	callq  36a0 <_ZNSaIcED1Ev@plt>
    4110:	48 8d 45 a0          	lea    -0x60(%rbp),%rax
    4114:	48 89 c7             	mov    %rax,%rdi
    4117:	e8 94 f4 ff ff       	callq  35b0 <_ZNSt7__cxx1112basic_stringIcSt11char_traitsIcESaIcEED1Ev@plt>
    411c:	eb 07                	jmp    4125 <_Z3runibPc+0x79c>
    411e:	f3 0f 1e fa          	endbr64 
    4122:	48 89 c3             	mov    %rax,%rbx
    4125:	48 8d 85 30 ff ff ff 	lea    -0xd0(%rbp),%rax
    412c:	48 89 c7             	mov    %rax,%rdi
    412f:	e8 6c f5 ff ff       	callq  36a0 <_ZNSaIcED1Ev@plt>
    4134:	48 89 d8             	mov    %rbx,%rax
    4137:	48 89 c7             	mov    %rax,%rdi
    413a:	e8 01 f7 ff ff       	callq  3840 <_Unwind_Resume@plt>
    413f:	f3 0f 1e fa          	endbr64 
    4143:	48 89 c3             	mov    %rax,%rbx
    4146:	48 8d 85 30 ff ff ff 	lea    -0xd0(%rbp),%rax
    414d:	48 89 c7             	mov    %rax,%rdi
    4150:	e8 a3 2c 00 00       	callq  6df8 <_ZN5Eigen12PartialPivLUINS_6MatrixIdLin1ELin1ELi0ELin1ELin1EEEED1Ev>
    4155:	48 89 d8             	mov    %rbx,%rax
    4158:	48 89 c7             	mov    %rax,%rdi
    415b:	e8 e0 f6 ff ff       	callq  3840 <_Unwind_Resume@plt>
    4160:	f3 0f 1e fa          	endbr64 
    4164:	48 89 c3             	mov    %rax,%rbx
    4167:	48 8d 45 c0          	lea    -0x40(%rbp),%rax
    416b:	48 89 c7             	mov    %rax,%rdi
    416e:	e8 3d f4 ff ff       	callq  35b0 <_ZNSt7__cxx1112basic_stringIcSt11char_traitsIcESaIcEED1Ev@plt>
    4173:	48 89 d8             	mov    %rbx,%rax
    4176:	48 89 c7             	mov    %rax,%rdi
    4179:	e8 c2 f6 ff ff       	callq  3840 <_Unwind_Resume@plt>
    417e:	f3 0f 1e fa          	endbr64 
    4182:	48 89 c3             	mov    %rax,%rbx
    4185:	48 8d 85 10 ff ff ff 	lea    -0xf0(%rbp),%rax
    418c:	48 89 c7             	mov    %rax,%rdi
    418f:	e8 12 3a 00 00       	callq  7ba6 <_ZNSt6vectorIiSaIiEED1Ev>
    4194:	eb 07                	jmp    419d <_Z3runibPc+0x814>
    4196:	f3 0f 1e fa          	endbr64 
    419a:	48 89 c3             	mov    %rax,%rbx
    419d:	48 8d 85 30 ff ff ff 	lea    -0xd0(%rbp),%rax
    41a4:	48 89 c7             	mov    %rax,%rdi
    41a7:	e8 fa 39 00 00       	callq  7ba6 <_ZNSt6vectorIiSaIiEED1Ev>
    41ac:	48 89 d8             	mov    %rbx,%rax
    41af:	48 89 c7             	mov    %rax,%rdi
    41b2:	e8 89 f6 ff ff       	callq  3840 <_Unwind_Resume@plt>
    41b7:	f3 0f 1e fa          	endbr64 
    41bb:	48 89 c3             	mov    %rax,%rbx
    41be:	48 8d 85 10 ff ff ff 	lea    -0xf0(%rbp),%rax
    41c5:	48 89 c7             	mov    %rax,%rdi
    41c8:	e8 d9 39 00 00       	callq  7ba6 <_ZNSt6vectorIiSaIiEED1Ev>
    41cd:	eb 07                	jmp    41d6 <_Z3runibPc+0x84d>
    41cf:	f3 0f 1e fa          	endbr64 
    41d3:	48 89 c3             	mov    %rax,%rbx
    41d6:	48 8d 85 30 ff ff ff 	lea    -0xd0(%rbp),%rax
    41dd:	48 89 c7             	mov    %rax,%rdi
    41e0:	e8 c1 39 00 00       	callq  7ba6 <_ZNSt6vectorIiSaIiEED1Ev>
    41e5:	48 89 d8             	mov    %rbx,%rax
    41e8:	48 89 c7             	mov    %rax,%rdi
    41eb:	e8 50 f6 ff ff       	callq  3840 <_Unwind_Resume@plt>
    41f0:	e8 bb f4 ff ff       	callq  36b0 <__stack_chk_fail@plt>
    41f5:	48 81 c4 18 01 00 00 	add    $0x118,%rsp
    41fc:	5b                   	pop    %rbx
    41fd:	5d                   	pop    %rbp
    41fe:	c3                   	retq   

00000000000041ff <_Z11createTeamsNSt7__cxx1112basic_stringIcSt11char_traitsIcESaIcEEE>:
    41ff:	f3 0f 1e fa          	endbr64 
    4203:	55                   	push   %rbp
    4204:	48 89 e5             	mov    %rsp,%rbp
    4207:	41 54                	push   %r12
    4209:	53                   	push   %rbx
    420a:	48 81 ec a0 02 00 00 	sub    $0x2a0,%rsp
    4211:	48 89 bd 58 fd ff ff 	mov    %rdi,-0x2a8(%rbp)
    4218:	64 48 8b 04 25 28 00 	mov    %fs:0x28,%rax
    421f:	00 00 
    4221:	48 89 45 e8          	mov    %rax,-0x18(%rbp)
    4225:	31 c0                	xor    %eax,%eax
    4227:	48 8d 85 80 fd ff ff 	lea    -0x280(%rbp),%rax
    422e:	48 89 c7             	mov    %rax,%rdi
    4231:	e8 fa f4 ff ff       	callq  3730 <_ZNSt7__cxx1112basic_stringIcSt11char_traitsIcESaIcEEC1Ev@plt>
    4236:	48 8d 85 a0 fd ff ff 	lea    -0x260(%rbp),%rax
    423d:	48 89 c7             	mov    %rax,%rdi
    4240:	e8 eb f4 ff ff       	callq  3730 <_ZNSt7__cxx1112basic_stringIcSt11char_traitsIcESaIcEEC1Ev@plt>
    4245:	48 8b 8d 58 fd ff ff 	mov    -0x2a8(%rbp),%rcx
    424c:	48 8d 85 e0 fd ff ff 	lea    -0x220(%rbp),%rax
    4253:	ba 08 00 00 00       	mov    $0x8,%edx
    4258:	48 89 ce             	mov    %rcx,%rsi
    425b:	48 89 c7             	mov    %rax,%rdi
    425e:	e8 4d f5 ff ff       	callq  37b0 <_ZNSt14basic_ifstreamIcSt11char_traitsIcEEC1ERKNSt7__cxx1112basic_stringIcS1_SaIcEEESt13_Ios_Openmode@plt>
    4263:	48 8d 85 e0 fd ff ff 	lea    -0x220(%rbp),%rax
    426a:	48 89 c7             	mov    %rax,%rdi
    426d:	e8 2e f5 ff ff       	callq  37a0 <_ZNSt14basic_ifstreamIcSt11char_traitsIcEE7is_openEv@plt>
    4272:	84 c0                	test   %al,%al
    4274:	0f 84 3f 01 00 00    	je     43b9 <_Z11createTeamsNSt7__cxx1112basic_stringIcSt11char_traitsIcESaIcEEE+0x1ba>
    427a:	48 8d 8d 80 fd ff ff 	lea    -0x280(%rbp),%rcx
    4281:	48 8d 85 e0 fd ff ff 	lea    -0x220(%rbp),%rax
    4288:	ba 2c 00 00 00       	mov    $0x2c,%edx
    428d:	48 89 ce             	mov    %rcx,%rsi
    4290:	48 89 c7             	mov    %rax,%rdi
    4293:	e8 d8 f5 ff ff       	callq  3870 <_ZSt7getlineIcSt11char_traitsIcESaIcEERSt13basic_istreamIT_T0_ES7_RNSt7__cxx1112basic_stringIS4_S5_T1_EES4_@plt>
    4298:	48 8b 10             	mov    (%rax),%rdx
    429b:	48 83 ea 18          	sub    $0x18,%rdx
    429f:	48 8b 12             	mov    (%rdx),%rdx
    42a2:	48 01 d0             	add    %rdx,%rax
    42a5:	48 89 c7             	mov    %rax,%rdi
    42a8:	e8 43 f4 ff ff       	callq  36f0 <_ZNKSt9basic_iosIcSt11char_traitsIcEEcvbEv@plt>
    42ad:	84 c0                	test   %al,%al
    42af:	0f 84 f3 00 00 00    	je     43a8 <_Z11createTeamsNSt7__cxx1112basic_stringIcSt11char_traitsIcESaIcEEE+0x1a9>
    42b5:	48 8d 8d a0 fd ff ff 	lea    -0x260(%rbp),%rcx
    42bc:	48 8d 85 e0 fd ff ff 	lea    -0x220(%rbp),%rax
    42c3:	ba 0a 00 00 00       	mov    $0xa,%edx
    42c8:	48 89 ce             	mov    %rcx,%rsi
    42cb:	48 89 c7             	mov    %rax,%rdi
    42ce:	e8 9d f5 ff ff       	callq  3870 <_ZSt7getlineIcSt11char_traitsIcESaIcEERSt13basic_istreamIT_T0_ES7_RNSt7__cxx1112basic_stringIS4_S5_T1_EES4_@plt>
    42d3:	48 8d 85 80 fd ff ff 	lea    -0x280(%rbp),%rax
    42da:	ba 0a 00 00 00       	mov    $0xa,%edx
    42df:	be 00 00 00 00       	mov    $0x0,%esi
    42e4:	48 89 c7             	mov    %rax,%rdi
    42e7:	e8 be 18 00 00       	callq  5baa <_ZNSt7__cxx114stoiERKNS_12basic_stringIcSt11char_traitsIcESaIcEEEPmi>
    42ec:	89 85 64 fd ff ff    	mov    %eax,-0x29c(%rbp)
    42f2:	48 8d 95 a0 fd ff ff 	lea    -0x260(%rbp),%rdx
    42f9:	48 8d 85 c0 fd ff ff 	lea    -0x240(%rbp),%rax
    4300:	48 89 d6             	mov    %rdx,%rsi
    4303:	48 89 c7             	mov    %rax,%rdi
    4306:	e8 45 f2 ff ff       	callq  3550 <_ZNSt7__cxx1112basic_stringIcSt11char_traitsIcESaIcEEC1ERKS4_@plt>
    430b:	4c 8d a5 c0 fd ff ff 	lea    -0x240(%rbp),%r12
    4312:	bf 48 00 00 00       	mov    $0x48,%edi
    4317:	e8 54 f3 ff ff       	callq  3670 <_Znwm@plt>
    431c:	48 89 c3             	mov    %rax,%rbx
    431f:	8b 85 64 fd ff ff    	mov    -0x29c(%rbp),%eax
    4325:	89 c2                	mov    %eax,%edx
    4327:	4c 89 e6             	mov    %r12,%rsi
    432a:	48 89 df             	mov    %rbx,%rdi
    432d:	e8 b6 e1 02 00       	callq  324e8 <_ZN4TeamC1ENSt7__cxx1112basic_stringIcSt11char_traitsIcESaIcEEEi>
    4332:	48 89 9d 68 fd ff ff 	mov    %rbx,-0x298(%rbp)
    4339:	48 8d 85 c0 fd ff ff 	lea    -0x240(%rbp),%rax
    4340:	48 89 c7             	mov    %rax,%rdi
    4343:	e8 68 f2 ff ff       	callq  35b0 <_ZNSt7__cxx1112basic_stringIcSt11char_traitsIcESaIcEED1Ev@plt>
    4348:	48 8d 85 68 fd ff ff 	lea    -0x298(%rbp),%rax
    434f:	48 89 c6             	mov    %rax,%rsi
    4352:	48 8d 3d 27 1e 05 00 	lea    0x51e27(%rip),%rdi        # 56180 <teamCollection>
    4359:	e8 90 38 00 00       	callq  7bee <_ZNSt6vectorIP4TeamSaIS1_EE9push_backERKS1_>
    435e:	48 8d 95 68 fd ff ff 	lea    -0x298(%rbp),%rdx
    4365:	48 8d 8d 64 fd ff ff 	lea    -0x29c(%rbp),%rcx
    436c:	48 8d 85 70 fd ff ff 	lea    -0x290(%rbp),%rax
    4373:	48 89 ce             	mov    %rcx,%rsi
    4376:	48 89 c7             	mov    %rax,%rdi
    4379:	e8 f0 38 00 00       	callq  7c6e <_ZNSt4pairIiP4TeamEC1IRiRS1_Lb1EEEOT_OT0_>
    437e:	48 8d 85 70 fd ff ff 	lea    -0x290(%rbp),%rax
    4385:	48 89 c6             	mov    %rax,%rsi
    4388:	48 8d 3d b1 1e 05 00 	lea    0x51eb1(%rip),%rdi        # 56240 <teamMap>
    438f:	e8 20 39 00 00       	callq  7cb4 <_ZNSt3mapIiP4TeamSt4lessIiESaISt4pairIKiS1_EEE6insertIS4_IiS1_EEENSt9enable_ifIXsrSt16is_constructibleIS6_JT_EE5valueES4_ISt17_Rb_tree_iteratorIS6_EbEE4typeEOSD_>
    4394:	8b 05 32 1f 05 00    	mov    0x51f32(%rip),%eax        # 562cc <numTeams>
    439a:	83 c0 01             	add    $0x1,%eax
    439d:	89 05 29 1f 05 00    	mov    %eax,0x51f29(%rip)        # 562cc <numTeams>
    43a3:	e9 d2 fe ff ff       	jmpq   427a <_Z11createTeamsNSt7__cxx1112basic_stringIcSt11char_traitsIcESaIcEEE+0x7b>
    43a8:	48 8d 85 e0 fd ff ff 	lea    -0x220(%rbp),%rax
    43af:	48 89 c7             	mov    %rax,%rdi
    43b2:	e8 19 f1 ff ff       	callq  34d0 <_ZNSt14basic_ifstreamIcSt11char_traitsIcEE5closeEv@plt>
    43b7:	eb 13                	jmp    43cc <_Z11createTeamsNSt7__cxx1112basic_stringIcSt11char_traitsIcESaIcEEE+0x1cd>
    43b9:	48 8d 35 78 fe 02 00 	lea    0x2fe78(%rip),%rsi        # 34238 <_ZL17HIGH_MARGIN_SCALE+0x38>
    43c0:	48 8d 3d 79 1c 05 00 	lea    0x51c79(%rip),%rdi        # 56040 <_ZSt4cout@@GLIBCXX_3.4>
    43c7:	e8 94 f2 ff ff       	callq  3660 <_ZStlsISt11char_traitsIcEERSt13basic_ostreamIcT_ES5_PKc@plt>
    43cc:	48 8d 85 e0 fd ff ff 	lea    -0x220(%rbp),%rax
    43d3:	48 89 c7             	mov    %rax,%rdi
    43d6:	e8 15 f1 ff ff       	callq  34f0 <_ZNSt14basic_ifstreamIcSt11char_traitsIcEED1Ev@plt>
    43db:	48 8d 85 a0 fd ff ff 	lea    -0x260(%rbp),%rax
    43e2:	48 89 c7             	mov    %rax,%rdi
    43e5:	e8 c6 f1 ff ff       	callq  35b0 <_ZNSt7__cxx1112basic_stringIcSt11char_traitsIcESaIcEED1Ev@plt>
    43ea:	48 8d 85 80 fd ff ff 	lea    -0x280(%rbp),%rax
    43f1:	48 89 c7             	mov    %rax,%rdi
    43f4:	e8 b7 f1 ff ff       	callq  35b0 <_ZNSt7__cxx1112basic_stringIcSt11char_traitsIcESaIcEED1Ev@plt>
    43f9:	90                   	nop
    43fa:	48 8b 45 e8          	mov    -0x18(%rbp),%rax
    43fe:	64 48 33 04 25 28 00 	xor    %fs:0x28,%rax
    4405:	00 00 
    4407:	74 7b                	je     4484 <_Z11createTeamsNSt7__cxx1112basic_stringIcSt11char_traitsIcESaIcEEE+0x285>
    4409:	eb 74                	jmp    447f <_Z11createTeamsNSt7__cxx1112basic_stringIcSt11char_traitsIcESaIcEEE+0x280>
    440b:	f3 0f 1e fa          	endbr64 
    440f:	49 89 c4             	mov    %rax,%r12
    4412:	48 89 df             	mov    %rbx,%rdi
    4415:	e8 36 f2 ff ff       	callq  3650 <_ZdlPv@plt>
    441a:	4c 89 e3             	mov    %r12,%rbx
    441d:	eb 07                	jmp    4426 <_Z11createTeamsNSt7__cxx1112basic_stringIcSt11char_traitsIcESaIcEEE+0x227>
    441f:	f3 0f 1e fa          	endbr64 
    4423:	48 89 c3             	mov    %rax,%rbx
    4426:	48 8d 85 c0 fd ff ff 	lea    -0x240(%rbp),%rax
    442d:	48 89 c7             	mov    %rax,%rdi
    4430:	e8 7b f1 ff ff       	callq  35b0 <_ZNSt7__cxx1112basic_stringIcSt11char_traitsIcESaIcEED1Ev@plt>
    4435:	eb 07                	jmp    443e <_Z11createTeamsNSt7__cxx1112basic_stringIcSt11char_traitsIcESaIcEEE+0x23f>
    4437:	f3 0f 1e fa          	endbr64 
    443b:	48 89 c3             	mov    %rax,%rbx
    443e:	48 8d 85 e0 fd ff ff 	lea    -0x220(%rbp),%rax
    4445:	48 89 c7             	mov    %rax,%rdi
    4448:	e8 a3 f0 ff ff       	callq  34f0 <_ZNSt14basic_ifstreamIcSt11char_traitsIcEED1Ev@plt>
    444d:	eb 07                	jmp    4456 <_Z11createTeamsNSt7__cxx1112basic_stringIcSt11char_traitsIcESaIcEEE+0x257>
    444f:	f3 0f 1e fa          	endbr64 
    4453:	48 89 c3             	mov    %rax,%rbx
    4456:	48 8d 85 a0 fd ff ff 	lea    -0x260(%rbp),%rax
    445d:	48 89 c7             	mov    %rax,%rdi
    4460:	e8 4b f1 ff ff       	callq  35b0 <_ZNSt7__cxx1112basic_stringIcSt11char_traitsIcESaIcEED1Ev@plt>
    4465:	48 8d 85 80 fd ff ff 	lea    -0x280(%rbp),%rax
    446c:	48 89 c7             	mov    %rax,%rdi
    446f:	e8 3c f1 ff ff       	callq  35b0 <_ZNSt7__cxx1112basic_stringIcSt11char_traitsIcESaIcEED1Ev@plt>
    4474:	48 89 d8             	mov    %rbx,%rax
    4477:	48 89 c7             	mov    %rax,%rdi
    447a:	e8 c1 f3 ff ff       	callq  3840 <_Unwind_Resume@plt>
    447f:	e8 2c f2 ff ff       	callq  36b0 <__stack_chk_fail@plt>
    4484:	48 81 c4 a0 02 00 00 	add    $0x2a0,%rsp
    448b:	5b                   	pop    %rbx
    448c:	41 5c                	pop    %r12
    448e:	5d                   	pop    %rbp
    448f:	c3                   	retq   

0000000000004490 <_Z9loadGamesNSt7__cxx1112basic_stringIcSt11char_traitsIcESaIcEEEib>:
    4490:	f3 0f 1e fa          	endbr64 
    4494:	55                   	push   %rbp
    4495:	48 89 e5             	mov    %rsp,%rbp
    4498:	53                   	push   %rbx
    4499:	48 81 ec 48 04 00 00 	sub    $0x448,%rsp
    44a0:	48 89 bd b8 fb ff ff 	mov    %rdi,-0x448(%rbp)
    44a7:	89 b5 b4 fb ff ff    	mov    %esi,-0x44c(%rbp)
    44ad:	89 d0                	mov    %edx,%eax
    44af:	88 85 b0 fb ff ff    	mov    %al,-0x450(%rbp)
    44b5:	64 48 8b 04 25 28 00 	mov    %fs:0x28,%rax
    44bc:	00 00 
    44be:	48 89 45 e8          	mov    %rax,-0x18(%rbp)
    44c2:	31 c0                	xor    %eax,%eax
    44c4:	8b 05 02 1e 05 00    	mov    0x51e02(%rip),%eax        # 562cc <numTeams>
    44ca:	48 63 d0             	movslq %eax,%rdx
    44cd:	8b 05 f9 1d 05 00    	mov    0x51df9(%rip),%eax        # 562cc <numTeams>
    44d3:	48 63 c8             	movslq %eax,%rcx
    44d6:	48 8d 85 70 fc ff ff 	lea    -0x390(%rbp),%rax
    44dd:	48 89 ce             	mov    %rcx,%rsi
    44e0:	48 89 c7             	mov    %rax,%rdi
    44e3:	e8 04 38 00 00       	callq  7cec <_ZN5Eigen9DenseBaseINS_6MatrixIdLin1ELin1ELi0ELin1ELin1EEEE4ZeroEll>
    44e8:	48 8d 85 70 fc ff ff 	lea    -0x390(%rbp),%rax
    44ef:	48 89 c6             	mov    %rax,%rsi
    44f2:	48 8d 3d 77 1d 05 00 	lea    0x51d77(%rip),%rdi        # 56270 <gameMatrix>
    44f9:	e8 50 38 00 00       	callq  7d4e <_ZN5Eigen6MatrixIdLin1ELin1ELi0ELin1ELin1EEaSINS_14CwiseNullaryOpINS_8internal18scalar_constant_opIdEES1_EEEERS1_RKNS_9DenseBaseIT_EE>
    44fe:	8b 05 c8 1d 05 00    	mov    0x51dc8(%rip),%eax        # 562cc <numTeams>
    4504:	48 63 d0             	movslq %eax,%rdx
    4507:	48 8d 85 70 fc ff ff 	lea    -0x390(%rbp),%rax
    450e:	48 89 d6             	mov    %rdx,%rsi
    4511:	48 89 c7             	mov    %rax,%rdi
    4514:	e8 5f 38 00 00       	callq  7d78 <_ZN5Eigen9DenseBaseINS_6MatrixIdLin1ELi1ELi0ELin1ELi1EEEE4ZeroEl>
    4519:	48 8d 85 70 fc ff ff 	lea    -0x390(%rbp),%rax
    4520:	48 89 c6             	mov    %rax,%rsi
    4523:	48 8d 3d 66 1d 05 00 	lea    0x51d66(%rip),%rdi        # 56290 <scores>
    452a:	e8 a7 38 00 00       	callq  7dd6 <_ZN5Eigen6MatrixIdLin1ELi1ELi0ELin1ELi1EEaSINS_14CwiseNullaryOpINS_8internal18scalar_constant_opIdEES1_EEEERS1_RKNS_9DenseBaseIT_EE>
    452f:	48 8d 85 d0 fc ff ff 	lea    -0x330(%rbp),%rax
    4536:	48 89 c7             	mov    %rax,%rdi
    4539:	e8 f2 f1 ff ff       	callq  3730 <_ZNSt7__cxx1112basic_stringIcSt11char_traitsIcESaIcEEC1Ev@plt>
    453e:	48 8d 85 f0 fc ff ff 	lea    -0x310(%rbp),%rax
    4545:	48 89 c7             	mov    %rax,%rdi
    4548:	e8 e3 f1 ff ff       	callq  3730 <_ZNSt7__cxx1112basic_stringIcSt11char_traitsIcESaIcEEC1Ev@plt>
    454d:	48 8d 85 10 fd ff ff 	lea    -0x2f0(%rbp),%rax
    4554:	48 89 c7             	mov    %rax,%rdi
    4557:	e8 d4 f1 ff ff       	callq  3730 <_ZNSt7__cxx1112basic_stringIcSt11char_traitsIcESaIcEEC1Ev@plt>
    455c:	48 8d 85 30 fd ff ff 	lea    -0x2d0(%rbp),%rax
    4563:	48 89 c7             	mov    %rax,%rdi
    4566:	e8 c5 f1 ff ff       	callq  3730 <_ZNSt7__cxx1112basic_stringIcSt11char_traitsIcESaIcEEC1Ev@plt>
    456b:	48 8d 85 50 fd ff ff 	lea    -0x2b0(%rbp),%rax
    4572:	48 89 c7             	mov    %rax,%rdi
    4575:	e8 b6 f1 ff ff       	callq  3730 <_ZNSt7__cxx1112basic_stringIcSt11char_traitsIcESaIcEEC1Ev@plt>
    457a:	48 8d 85 70 fd ff ff 	lea    -0x290(%rbp),%rax
    4581:	48 89 c7             	mov    %rax,%rdi
    4584:	e8 a7 f1 ff ff       	callq  3730 <_ZNSt7__cxx1112basic_stringIcSt11char_traitsIcESaIcEEC1Ev@plt>
    4589:	48 8d 85 90 fd ff ff 	lea    -0x270(%rbp),%rax
    4590:	48 89 c7             	mov    %rax,%rdi
    4593:	e8 98 f1 ff ff       	callq  3730 <_ZNSt7__cxx1112basic_stringIcSt11char_traitsIcESaIcEEC1Ev@plt>
    4598:	48 8d 85 b0 fd ff ff 	lea    -0x250(%rbp),%rax
    459f:	48 89 c7             	mov    %rax,%rdi
    45a2:	e8 89 f1 ff ff       	callq  3730 <_ZNSt7__cxx1112basic_stringIcSt11char_traitsIcESaIcEEC1Ev@plt>
    45a7:	be 10 00 00 00       	mov    $0x10,%esi
    45ac:	bf 08 00 00 00       	mov    $0x8,%edi
    45b1:	e8 3f 16 00 00       	callq  5bf5 <_ZStorSt13_Ios_OpenmodeS_>
    45b6:	89 c2                	mov    %eax,%edx
    45b8:	48 8b 8d b8 fb ff ff 	mov    -0x448(%rbp),%rcx
    45bf:	48 8d 85 d0 fd ff ff 	lea    -0x230(%rbp),%rax
    45c6:	48 89 ce             	mov    %rcx,%rsi
    45c9:	48 89 c7             	mov    %rax,%rdi
    45cc:	e8 0f f2 ff ff       	callq  37e0 <_ZNSt13basic_fstreamIcSt11char_traitsIcEEC1ERKNSt7__cxx1112basic_stringIcS1_SaIcEEESt13_Ios_Openmode@plt>
    45d1:	48 8d 85 d0 fd ff ff 	lea    -0x230(%rbp),%rax
    45d8:	48 89 c7             	mov    %rax,%rdi
    45db:	e8 30 f2 ff ff       	callq  3810 <_ZNSt13basic_fstreamIcSt11char_traitsIcEE7is_openEv@plt>
    45e0:	84 c0                	test   %al,%al
    45e2:	0f 84 2a 04 00 00    	je     4a12 <_Z9loadGamesNSt7__cxx1112basic_stringIcSt11char_traitsIcESaIcEEEib+0x582>
    45e8:	48 8d 8d d0 fc ff ff 	lea    -0x330(%rbp),%rcx
    45ef:	48 8d 85 d0 fd ff ff 	lea    -0x230(%rbp),%rax
    45f6:	ba 2c 00 00 00       	mov    $0x2c,%edx
    45fb:	48 89 ce             	mov    %rcx,%rsi
    45fe:	48 89 c7             	mov    %rax,%rdi
    4601:	e8 6a f2 ff ff       	callq  3870 <_ZSt7getlineIcSt11char_traitsIcESaIcEERSt13basic_istreamIT_T0_ES7_RNSt7__cxx1112basic_stringIS4_S5_T1_EES4_@plt>
    4606:	48 8b 10             	mov    (%rax),%rdx
    4609:	48 83 ea 18          	sub    $0x18,%rdx
    460d:	48 8b 12             	mov    (%rdx),%rdx
    4610:	48 01 d0             	add    %rdx,%rax
    4613:	48 89 c7             	mov    %rax,%rdi
    4616:	e8 d5 f0 ff ff       	callq  36f0 <_ZNKSt9basic_iosIcSt11char_traitsIcEEcvbEv@plt>
    461b:	84 c0                	test   %al,%al
    461d:	0f 84 02 04 00 00    	je     4a25 <_Z9loadGamesNSt7__cxx1112basic_stringIcSt11char_traitsIcESaIcEEEib+0x595>
    4623:	48 8d 8d f0 fc ff ff 	lea    -0x310(%rbp),%rcx
    462a:	48 8d 85 d0 fd ff ff 	lea    -0x230(%rbp),%rax
    4631:	ba 2c 00 00 00       	mov    $0x2c,%edx
    4636:	48 89 ce             	mov    %rcx,%rsi
    4639:	48 89 c7             	mov    %rax,%rdi
    463c:	e8 2f f2 ff ff       	callq  3870 <_ZSt7getlineIcSt11char_traitsIcESaIcEERSt13basic_istreamIT_T0_ES7_RNSt7__cxx1112basic_stringIS4_S5_T1_EES4_@plt>
    4641:	48 8d 8d 10 fd ff ff 	lea    -0x2f0(%rbp),%rcx
    4648:	48 8d 85 d0 fd ff ff 	lea    -0x230(%rbp),%rax
    464f:	ba 2c 00 00 00       	mov    $0x2c,%edx
    4654:	48 89 ce             	mov    %rcx,%rsi
    4657:	48 89 c7             	mov    %rax,%rdi
    465a:	e8 11 f2 ff ff       	callq  3870 <_ZSt7getlineIcSt11char_traitsIcESaIcEERSt13basic_istreamIT_T0_ES7_RNSt7__cxx1112basic_stringIS4_S5_T1_EES4_@plt>
    465f:	48 8d 8d 30 fd ff ff 	lea    -0x2d0(%rbp),%rcx
    4666:	48 8d 85 d0 fd ff ff 	lea    -0x230(%rbp),%rax
    466d:	ba 2c 00 00 00       	mov    $0x2c,%edx
    4672:	48 89 ce             	mov    %rcx,%rsi
    4675:	48 89 c7             	mov    %rax,%rdi
    4678:	e8 f3 f1 ff ff       	callq  3870 <_ZSt7getlineIcSt11char_traitsIcESaIcEERSt13basic_istreamIT_T0_ES7_RNSt7__cxx1112basic_stringIS4_S5_T1_EES4_@plt>
    467d:	48 8d 8d 50 fd ff ff 	lea    -0x2b0(%rbp),%rcx
    4684:	48 8d 85 d0 fd ff ff 	lea    -0x230(%rbp),%rax
    468b:	ba 2c 00 00 00       	mov    $0x2c,%edx
    4690:	48 89 ce             	mov    %rcx,%rsi
    4693:	48 89 c7             	mov    %rax,%rdi
    4696:	e8 d5 f1 ff ff       	callq  3870 <_ZSt7getlineIcSt11char_traitsIcESaIcEERSt13basic_istreamIT_T0_ES7_RNSt7__cxx1112basic_stringIS4_S5_T1_EES4_@plt>
    469b:	48 8d 8d 70 fd ff ff 	lea    -0x290(%rbp),%rcx
    46a2:	48 8d 85 d0 fd ff ff 	lea    -0x230(%rbp),%rax
    46a9:	ba 2c 00 00 00       	mov    $0x2c,%edx
    46ae:	48 89 ce             	mov    %rcx,%rsi
    46b1:	48 89 c7             	mov    %rax,%rdi
    46b4:	e8 b7 f1 ff ff       	callq  3870 <_ZSt7getlineIcSt11char_traitsIcESaIcEERSt13basic_istreamIT_T0_ES7_RNSt7__cxx1112basic_stringIS4_S5_T1_EES4_@plt>
    46b9:	48 8d 8d 90 fd ff ff 	lea    -0x270(%rbp),%rcx
    46c0:	48 8d 85 d0 fd ff ff 	lea    -0x230(%rbp),%rax
    46c7:	ba 2c 00 00 00       	mov    $0x2c,%edx
    46cc:	48 89 ce             	mov    %rcx,%rsi
    46cf:	48 89 c7             	mov    %rax,%rdi
    46d2:	e8 99 f1 ff ff       	callq  3870 <_ZSt7getlineIcSt11char_traitsIcESaIcEERSt13basic_istreamIT_T0_ES7_RNSt7__cxx1112basic_stringIS4_S5_T1_EES4_@plt>
    46d7:	48 8d 8d b0 fd ff ff 	lea    -0x250(%rbp),%rcx
    46de:	48 8d 85 d0 fd ff ff 	lea    -0x230(%rbp),%rax
    46e5:	ba 20 00 00 00       	mov    $0x20,%edx
    46ea:	48 89 ce             	mov    %rcx,%rsi
    46ed:	48 89 c7             	mov    %rax,%rdi
    46f0:	e8 7b f1 ff ff       	callq  3870 <_ZSt7getlineIcSt11char_traitsIcESaIcEERSt13basic_istreamIT_T0_ES7_RNSt7__cxx1112basic_stringIS4_S5_T1_EES4_@plt>
    46f5:	48 8d 8d b0 fd ff ff 	lea    -0x250(%rbp),%rcx
    46fc:	48 8d 85 d0 fd ff ff 	lea    -0x230(%rbp),%rax
    4703:	ba 20 00 00 00       	mov    $0x20,%edx
    4708:	48 89 ce             	mov    %rcx,%rsi
    470b:	48 89 c7             	mov    %rax,%rdi
    470e:	e8 5d f1 ff ff       	callq  3870 <_ZSt7getlineIcSt11char_traitsIcESaIcEERSt13basic_istreamIT_T0_ES7_RNSt7__cxx1112basic_stringIS4_S5_T1_EES4_@plt>
    4713:	48 8d 85 d0 fc ff ff 	lea    -0x330(%rbp),%rax
    471a:	ba 0a 00 00 00       	mov    $0xa,%edx
    471f:	be 00 00 00 00       	mov    $0x0,%esi
    4724:	48 89 c7             	mov    %rax,%rdi
    4727:	e8 7e 14 00 00       	callq  5baa <_ZNSt7__cxx114stoiERKNS_12basic_stringIcSt11char_traitsIcESaIcEEEPmi>
    472c:	89 85 d4 fb ff ff    	mov    %eax,-0x42c(%rbp)
    4732:	48 8d 85 10 fd ff ff 	lea    -0x2f0(%rbp),%rax
    4739:	ba 0a 00 00 00       	mov    $0xa,%edx
    473e:	be 00 00 00 00       	mov    $0x0,%esi
    4743:	48 89 c7             	mov    %rax,%rdi
    4746:	e8 5f 14 00 00       	callq  5baa <_ZNSt7__cxx114stoiERKNS_12basic_stringIcSt11char_traitsIcESaIcEEEPmi>
    474b:	89 85 c0 fb ff ff    	mov    %eax,-0x440(%rbp)
    4751:	48 8d 85 70 fd ff ff 	lea    -0x290(%rbp),%rax
    4758:	ba 0a 00 00 00       	mov    $0xa,%edx
    475d:	be 00 00 00 00       	mov    $0x0,%esi
    4762:	48 89 c7             	mov    %rax,%rdi
    4765:	e8 40 14 00 00       	callq  5baa <_ZNSt7__cxx114stoiERKNS_12basic_stringIcSt11char_traitsIcESaIcEEEPmi>
    476a:	89 85 c4 fb ff ff    	mov    %eax,-0x43c(%rbp)
    4770:	48 8d 85 50 fd ff ff 	lea    -0x2b0(%rbp),%rax
    4777:	ba 0a 00 00 00       	mov    $0xa,%edx
    477c:	be 00 00 00 00       	mov    $0x0,%esi
    4781:	48 89 c7             	mov    %rax,%rdi
    4784:	e8 21 14 00 00       	callq  5baa <_ZNSt7__cxx114stoiERKNS_12basic_stringIcSt11char_traitsIcESaIcEEEPmi>
    4789:	89 85 c8 fb ff ff    	mov    %eax,-0x438(%rbp)
    478f:	48 8d 85 b0 fd ff ff 	lea    -0x250(%rbp),%rax
    4796:	ba 0a 00 00 00       	mov    $0xa,%edx
    479b:	be 00 00 00 00       	mov    $0x0,%esi
    47a0:	48 89 c7             	mov    %rax,%rdi
    47a3:	e8 02 14 00 00       	callq  5baa <_ZNSt7__cxx114stoiERKNS_12basic_stringIcSt11char_traitsIcESaIcEEEPmi>
    47a8:	89 85 cc fb ff ff    	mov    %eax,-0x434(%rbp)
    47ae:	48 8d 85 c4 fb ff ff 	lea    -0x43c(%rbp),%rax
    47b5:	48 89 c6             	mov    %rax,%rsi
    47b8:	48 8d 3d 81 1a 05 00 	lea    0x51a81(%rip),%rdi        # 56240 <teamMap>
    47bf:	e8 3c 36 00 00       	callq  7e00 <_ZNSt3mapIiP4TeamSt4lessIiESaISt4pairIKiS1_EEE2atERS5_>
    47c4:	48 8b 18             	mov    (%rax),%rbx
    47c7:	48 8d 85 c0 fb ff ff 	lea    -0x440(%rbp),%rax
    47ce:	48 89 c6             	mov    %rax,%rsi
    47d1:	48 8d 3d 68 1a 05 00 	lea    0x51a68(%rip),%rdi        # 56240 <teamMap>
    47d8:	e8 23 36 00 00       	callq  7e00 <_ZNSt3mapIiP4TeamSt4lessIiESaISt4pairIKiS1_EEE2atERS5_>
    47dd:	48 8b 10             	mov    (%rax),%rdx
    47e0:	8b bd cc fb ff ff    	mov    -0x434(%rbp),%edi
    47e6:	8b 8d c8 fb ff ff    	mov    -0x438(%rbp),%ecx
    47ec:	8b b5 d4 fb ff ff    	mov    -0x42c(%rbp),%esi
    47f2:	48 8d 85 00 fc ff ff 	lea    -0x400(%rbp),%rax
    47f9:	41 89 f9             	mov    %edi,%r9d
    47fc:	41 89 c8             	mov    %ecx,%r8d
    47ff:	48 89 d9             	mov    %rbx,%rcx
    4802:	48 89 c7             	mov    %rax,%rdi
    4805:	e8 c2 db 02 00       	callq  323cc <_ZN4GameC1EiP4TeamS1_ii>
    480a:	48 8d 85 c0 fb ff ff 	lea    -0x440(%rbp),%rax
    4811:	48 89 c6             	mov    %rax,%rsi
    4814:	48 8d 3d 25 1a 05 00 	lea    0x51a25(%rip),%rdi        # 56240 <teamMap>
    481b:	e8 e0 35 00 00       	callq  7e00 <_ZNSt3mapIiP4TeamSt4lessIiESaISt4pairIKiS1_EEE2atERS5_>
    4820:	48 8b 00             	mov    (%rax),%rax
    4823:	48 8d 95 00 fc ff ff 	lea    -0x400(%rbp),%rdx
    482a:	48 89 d6             	mov    %rdx,%rsi
    482d:	48 89 c7             	mov    %rax,%rdi
    4830:	e8 3f dd 02 00       	callq  32574 <_ZN4Team7addGameEP4Game>
    4835:	48 8d 85 c4 fb ff ff 	lea    -0x43c(%rbp),%rax
    483c:	48 89 c6             	mov    %rax,%rsi
    483f:	48 8d 3d fa 19 05 00 	lea    0x519fa(%rip),%rdi        # 56240 <teamMap>
    4846:	e8 b5 35 00 00       	callq  7e00 <_ZNSt3mapIiP4TeamSt4lessIiESaISt4pairIKiS1_EEE2atERS5_>
    484b:	48 8b 00             	mov    (%rax),%rax
    484e:	48 8d 95 00 fc ff ff 	lea    -0x400(%rbp),%rdx
    4855:	48 89 d6             	mov    %rdx,%rsi
    4858:	48 89 c7             	mov    %rax,%rdi
    485b:	e8 14 dd 02 00       	callq  32574 <_ZN4Team7addGameEP4Game>
    4860:	8b 05 62 1a 05 00    	mov    0x51a62(%rip),%eax        # 562c8 <numGamesPlayed>
    4866:	83 c0 01             	add    $0x1,%eax
    4869:	89 05 59 1a 05 00    	mov    %eax,0x51a59(%rip)        # 562c8 <numGamesPlayed>
    486f:	48 8d 85 30 fd ff ff 	lea    -0x2d0(%rbp),%rax
    4876:	ba 0a 00 00 00       	mov    $0xa,%edx
    487b:	be 00 00 00 00       	mov    $0x0,%esi
    4880:	48 89 c7             	mov    %rax,%rdi
    4883:	e8 22 13 00 00       	callq  5baa <_ZNSt7__cxx114stoiERKNS_12basic_stringIcSt11char_traitsIcESaIcEEEPmi>
    4888:	83 f8 01             	cmp    $0x1,%eax
    488b:	0f 94 c0             	sete   %al
    488e:	84 c0                	test   %al,%al
    4890:	74 0c                	je     489e <_Z9loadGamesNSt7__cxx1112basic_stringIcSt11char_traitsIcESaIcEEEib+0x40e>
    4892:	8b 85 b4 fb ff ff    	mov    -0x44c(%rbp),%eax
    4898:	01 85 c8 fb ff ff    	add    %eax,-0x438(%rbp)
    489e:	48 8d 85 90 fd ff ff 	lea    -0x270(%rbp),%rax
    48a5:	ba 0a 00 00 00       	mov    $0xa,%edx
    48aa:	be 00 00 00 00       	mov    $0x0,%esi
    48af:	48 89 c7             	mov    %rax,%rdi
    48b2:	e8 f3 12 00 00       	callq  5baa <_ZNSt7__cxx114stoiERKNS_12basic_stringIcSt11char_traitsIcESaIcEEEPmi>
    48b7:	83 f8 01             	cmp    $0x1,%eax
    48ba:	0f 94 c0             	sete   %al
    48bd:	84 c0                	test   %al,%al
    48bf:	74 0c                	je     48cd <_Z9loadGamesNSt7__cxx1112basic_stringIcSt11char_traitsIcESaIcEEEib+0x43d>
    48c1:	8b 85 b4 fb ff ff    	mov    -0x44c(%rbp),%eax
    48c7:	01 85 cc fb ff ff    	add    %eax,-0x434(%rbp)
    48cd:	0f b6 bd b0 fb ff ff 	movzbl -0x450(%rbp),%edi
    48d4:	8b b5 c4 fb ff ff    	mov    -0x43c(%rbp),%esi
    48da:	8b 85 c0 fb ff ff    	mov    -0x440(%rbp),%eax
    48e0:	8b 8d cc fb ff ff    	mov    -0x434(%rbp),%ecx
    48e6:	8b 95 c8 fb ff ff    	mov    -0x438(%rbp),%edx
    48ec:	41 89 f8             	mov    %edi,%r8d
    48ef:	89 c7                	mov    %eax,%edi
    48f1:	e8 98 02 00 00       	callq  4b8e <_Z14populateMatrixiiiib>
    48f6:	c7 85 d0 fb ff ff 00 	movl   $0x0,-0x430(%rbp)
    48fd:	00 00 00 
    4900:	8b 05 c6 19 05 00    	mov    0x519c6(%rip),%eax        # 562cc <numTeams>
    4906:	39 85 d0 fb ff ff    	cmp    %eax,-0x430(%rbp)
    490c:	0f 8d 8f 00 00 00    	jge    49a1 <_Z9loadGamesNSt7__cxx1112basic_stringIcSt11char_traitsIcESaIcEEEib+0x511>
    4912:	8b 05 b4 19 05 00    	mov    0x519b4(%rip),%eax        # 562cc <numTeams>
    4918:	83 e8 01             	sub    $0x1,%eax
    491b:	48 63 d0             	movslq %eax,%rdx
    491e:	48 8d 85 30 fc ff ff 	lea    -0x3d0(%rbp),%rax
    4925:	48 8d 35 44 19 05 00 	lea    0x51944(%rip),%rsi        # 56270 <gameMatrix>
    492c:	48 89 c7             	mov    %rax,%rdi
    492f:	e8 2c 37 00 00       	callq  8060 <_ZN5Eigen9DenseBaseINS_6MatrixIdLin1ELin1ELi0ELin1ELin1EEEE3rowEl>
    4934:	8b 85 d0 fb ff ff    	mov    -0x430(%rbp),%eax
    493a:	48 63 d0             	movslq %eax,%rdx
    493d:	48 8d 85 70 fc ff ff 	lea    -0x390(%rbp),%rax
    4944:	48 8d 8d 30 fc ff ff 	lea    -0x3d0(%rbp),%rcx
    494b:	48 89 ce             	mov    %rcx,%rsi
    494e:	48 89 c7             	mov    %rax,%rdi
    4951:	e8 4a 37 00 00       	callq  80a0 <_ZN5Eigen9DenseBaseINS_5BlockINS_6MatrixIdLin1ELin1ELi0ELin1ELin1EEELi1ELin1ELb0EEEE3colEl>
    4956:	f2 0f 10 05 32 9f 03 	movsd  0x39f32(%rip),%xmm0        # 3e890 <_ZL17HIGH_MARGIN_SCALE+0xa690>
    495d:	00 
    495e:	f2 0f 11 85 d8 fb ff 	movsd  %xmm0,-0x428(%rbp)
    4965:	ff 
    4966:	48 8d 85 e0 fb ff ff 	lea    -0x420(%rbp),%rax
    496d:	48 8d 95 d8 fb ff ff 	lea    -0x428(%rbp),%rdx
    4974:	48 8d 8d 70 fc ff ff 	lea    -0x390(%rbp),%rcx
    497b:	48 89 ce             	mov    %rcx,%rsi
    497e:	48 89 c7             	mov    %rax,%rdi
    4981:	e8 5a 37 00 00       	callq  80e0 <_ZN5Eigen9DenseBaseINS_5BlockINS1_INS_6MatrixIdLin1ELin1ELi0ELin1ELin1EEELi1ELin1ELb0EEELi1ELi1ELb0EEEElsERKd>
    4986:	48 8d 85 e0 fb ff ff 	lea    -0x420(%rbp),%rax
    498d:	48 89 c7             	mov    %rax,%rdi
    4990:	e8 81 37 00 00       	callq  8116 <_ZN5Eigen16CommaInitializerINS_5BlockINS1_INS_6MatrixIdLin1ELin1ELi0ELin1ELin1EEELi1ELin1ELb0EEELi1ELi1ELb0EEEED1Ev>
    4995:	83 85 d0 fb ff ff 01 	addl   $0x1,-0x430(%rbp)
    499c:	e9 5f ff ff ff       	jmpq   4900 <_Z9loadGamesNSt7__cxx1112basic_stringIcSt11char_traitsIcESaIcEEEib+0x470>
    49a1:	8b 05 25 19 05 00    	mov    0x51925(%rip),%eax        # 562cc <numTeams>
    49a7:	83 e8 01             	sub    $0x1,%eax
    49aa:	48 63 d0             	movslq %eax,%rdx
    49ad:	48 8d 85 70 fc ff ff 	lea    -0x390(%rbp),%rax
    49b4:	48 8d 35 d5 18 05 00 	lea    0x518d5(%rip),%rsi        # 56290 <scores>
    49bb:	48 89 c7             	mov    %rax,%rdi
    49be:	e8 7d 2d 00 00       	callq  7740 <_ZN5Eigen9DenseBaseINS_6MatrixIdLin1ELi1ELi0ELin1ELi1EEEE3rowEl>
    49c3:	66 0f ef c0          	pxor   %xmm0,%xmm0
    49c7:	f2 0f 11 85 e0 fb ff 	movsd  %xmm0,-0x420(%rbp)
    49ce:	ff 
    49cf:	48 8d 85 30 fc ff ff 	lea    -0x3d0(%rbp),%rax
    49d6:	48 8d 95 e0 fb ff ff 	lea    -0x420(%rbp),%rdx
    49dd:	48 8d 8d 70 fc ff ff 	lea    -0x390(%rbp),%rcx
    49e4:	48 89 ce             	mov    %rcx,%rsi
    49e7:	48 89 c7             	mov    %rax,%rdi
    49ea:	e8 47 37 00 00       	callq  8136 <_ZN5Eigen9DenseBaseINS_5BlockINS_6MatrixIdLin1ELi1ELi0ELin1ELi1EEELi1ELi1ELb0EEEElsERKd>
    49ef:	48 8d 85 30 fc ff ff 	lea    -0x3d0(%rbp),%rax
    49f6:	48 89 c7             	mov    %rax,%rdi
    49f9:	e8 6e 37 00 00       	callq  816c <_ZN5Eigen16CommaInitializerINS_5BlockINS_6MatrixIdLin1ELi1ELi0ELin1ELi1EEELi1ELi1ELb0EEEED1Ev>
    49fe:	48 8d 85 00 fc ff ff 	lea    -0x400(%rbp),%rax
    4a05:	48 89 c7             	mov    %rax,%rdi
    4a08:	e8 37 24 00 00       	callq  6e44 <_ZN4GameD1Ev>
    4a0d:	e9 d6 fb ff ff       	jmpq   45e8 <_Z9loadGamesNSt7__cxx1112basic_stringIcSt11char_traitsIcESaIcEEEib+0x158>
    4a12:	48 8d 35 1f f8 02 00 	lea    0x2f81f(%rip),%rsi        # 34238 <_ZL17HIGH_MARGIN_SCALE+0x38>
    4a19:	48 8d 3d 20 16 05 00 	lea    0x51620(%rip),%rdi        # 56040 <_ZSt4cout@@GLIBCXX_3.4>
    4a20:	e8 3b ec ff ff       	callq  3660 <_ZStlsISt11char_traitsIcEERSt13basic_ostreamIcT_ES5_PKc@plt>
    4a25:	48 8d 85 d0 fd ff ff 	lea    -0x230(%rbp),%rax
    4a2c:	48 89 c7             	mov    %rax,%rdi
    4a2f:	e8 ac ea ff ff       	callq  34e0 <_ZNSt13basic_fstreamIcSt11char_traitsIcEED1Ev@plt>
    4a34:	48 8d 85 b0 fd ff ff 	lea    -0x250(%rbp),%rax
    4a3b:	48 89 c7             	mov    %rax,%rdi
    4a3e:	e8 6d eb ff ff       	callq  35b0 <_ZNSt7__cxx1112basic_stringIcSt11char_traitsIcESaIcEED1Ev@plt>
    4a43:	48 8d 85 90 fd ff ff 	lea    -0x270(%rbp),%rax
    4a4a:	48 89 c7             	mov    %rax,%rdi
    4a4d:	e8 5e eb ff ff       	callq  35b0 <_ZNSt7__cxx1112basic_stringIcSt11char_traitsIcESaIcEED1Ev@plt>
    4a52:	48 8d 85 70 fd ff ff 	lea    -0x290(%rbp),%rax
    4a59:	48 89 c7             	mov    %rax,%rdi
    4a5c:	e8 4f eb ff ff       	callq  35b0 <_ZNSt7__cxx1112basic_stringIcSt11char_traitsIcESaIcEED1Ev@plt>
    4a61:	48 8d 85 50 fd ff ff 	lea    -0x2b0(%rbp),%rax
    4a68:	48 89 c7             	mov    %rax,%rdi
    4a6b:	e8 40 eb ff ff       	callq  35b0 <_ZNSt7__cxx1112basic_stringIcSt11char_traitsIcESaIcEED1Ev@plt>
    4a70:	48 8d 85 30 fd ff ff 	lea    -0x2d0(%rbp),%rax
    4a77:	48 89 c7             	mov    %rax,%rdi
    4a7a:	e8 31 eb ff ff       	callq  35b0 <_ZNSt7__cxx1112basic_stringIcSt11char_traitsIcESaIcEED1Ev@plt>
    4a7f:	48 8d 85 10 fd ff ff 	lea    -0x2f0(%rbp),%rax
    4a86:	48 89 c7             	mov    %rax,%rdi
    4a89:	e8 22 eb ff ff       	callq  35b0 <_ZNSt7__cxx1112basic_stringIcSt11char_traitsIcESaIcEED1Ev@plt>
    4a8e:	48 8d 85 f0 fc ff ff 	lea    -0x310(%rbp),%rax
    4a95:	48 89 c7             	mov    %rax,%rdi
    4a98:	e8 13 eb ff ff       	callq  35b0 <_ZNSt7__cxx1112basic_stringIcSt11char_traitsIcESaIcEED1Ev@plt>
    4a9d:	48 8d 85 d0 fc ff ff 	lea    -0x330(%rbp),%rax
    4aa4:	48 89 c7             	mov    %rax,%rdi
    4aa7:	e8 04 eb ff ff       	callq  35b0 <_ZNSt7__cxx1112basic_stringIcSt11char_traitsIcESaIcEED1Ev@plt>
    4aac:	90                   	nop
    4aad:	48 8b 45 e8          	mov    -0x18(%rbp),%rax
    4ab1:	64 48 33 04 25 28 00 	xor    %fs:0x28,%rax
    4ab8:	00 00 
    4aba:	0f 84 c4 00 00 00    	je     4b84 <_Z9loadGamesNSt7__cxx1112basic_stringIcSt11char_traitsIcESaIcEEEib+0x6f4>
    4ac0:	e9 ba 00 00 00       	jmpq   4b7f <_Z9loadGamesNSt7__cxx1112basic_stringIcSt11char_traitsIcESaIcEEEib+0x6ef>
    4ac5:	f3 0f 1e fa          	endbr64 
    4ac9:	48 89 c3             	mov    %rax,%rbx
    4acc:	48 8d 85 00 fc ff ff 	lea    -0x400(%rbp),%rax
    4ad3:	48 89 c7             	mov    %rax,%rdi
    4ad6:	e8 69 23 00 00       	callq  6e44 <_ZN4GameD1Ev>
    4adb:	eb 07                	jmp    4ae4 <_Z9loadGamesNSt7__cxx1112basic_stringIcSt11char_traitsIcESaIcEEEib+0x654>
    4add:	f3 0f 1e fa          	endbr64 
    4ae1:	48 89 c3             	mov    %rax,%rbx
    4ae4:	48 8d 85 d0 fd ff ff 	lea    -0x230(%rbp),%rax
    4aeb:	48 89 c7             	mov    %rax,%rdi
    4aee:	e8 ed e9 ff ff       	callq  34e0 <_ZNSt13basic_fstreamIcSt11char_traitsIcEED1Ev@plt>
    4af3:	eb 07                	jmp    4afc <_Z9loadGamesNSt7__cxx1112basic_stringIcSt11char_traitsIcESaIcEEEib+0x66c>
    4af5:	f3 0f 1e fa          	endbr64 
    4af9:	48 89 c3             	mov    %rax,%rbx
    4afc:	48 8d 85 b0 fd ff ff 	lea    -0x250(%rbp),%rax
    4b03:	48 89 c7             	mov    %rax,%rdi
    4b06:	e8 a5 ea ff ff       	callq  35b0 <_ZNSt7__cxx1112basic_stringIcSt11char_traitsIcESaIcEED1Ev@plt>
    4b0b:	48 8d 85 90 fd ff ff 	lea    -0x270(%rbp),%rax
    4b12:	48 89 c7             	mov    %rax,%rdi
    4b15:	e8 96 ea ff ff       	callq  35b0 <_ZNSt7__cxx1112basic_stringIcSt11char_traitsIcESaIcEED1Ev@plt>
    4b1a:	48 8d 85 70 fd ff ff 	lea    -0x290(%rbp),%rax
    4b21:	48 89 c7             	mov    %rax,%rdi
    4b24:	e8 87 ea ff ff       	callq  35b0 <_ZNSt7__cxx1112basic_stringIcSt11char_traitsIcESaIcEED1Ev@plt>
    4b29:	48 8d 85 50 fd ff ff 	lea    -0x2b0(%rbp),%rax
    4b30:	48 89 c7             	mov    %rax,%rdi
    4b33:	e8 78 ea ff ff       	callq  35b0 <_ZNSt7__cxx1112basic_stringIcSt11char_traitsIcESaIcEED1Ev@plt>
    4b38:	48 8d 85 30 fd ff ff 	lea    -0x2d0(%rbp),%rax
    4b3f:	48 89 c7             	mov    %rax,%rdi
    4b42:	e8 69 ea ff ff       	callq  35b0 <_ZNSt7__cxx1112basic_stringIcSt11char_traitsIcESaIcEED1Ev@plt>
    4b47:	48 8d 85 10 fd ff ff 	lea    -0x2f0(%rbp),%rax
    4b4e:	48 89 c7             	mov    %rax,%rdi
    4b51:	e8 5a ea ff ff       	callq  35b0 <_ZNSt7__cxx1112basic_stringIcSt11char_traitsIcESaIcEED1Ev@plt>
    4b56:	48 8d 85 f0 fc ff ff 	lea    -0x310(%rbp),%rax
    4b5d:	48 89 c7             	mov    %rax,%rdi
    4b60:	e8 4b ea ff ff       	callq  35b0 <_ZNSt7__cxx1112basic_stringIcSt11char_traitsIcESaIcEED1Ev@plt>
    4b65:	48 8d 85 d0 fc ff ff 	lea    -0x330(%rbp),%rax
    4b6c:	48 89 c7             	mov    %rax,%rdi
    4b6f:	e8 3c ea ff ff       	callq  35b0 <_ZNSt7__cxx1112basic_stringIcSt11char_traitsIcESaIcEED1Ev@plt>
    4b74:	48 89 d8             	mov    %rbx,%rax
    4b77:	48 89 c7             	mov    %rax,%rdi
    4b7a:	e8 c1 ec ff ff       	callq  3840 <_Unwind_Resume@plt>
    4b7f:	e8 2c eb ff ff       	callq  36b0 <__stack_chk_fail@plt>
    4b84:	48 81 c4 48 04 00 00 	add    $0x448,%rsp
    4b8b:	5b                   	pop    %rbx
    4b8c:	5d                   	pop    %rbp
    4b8d:	c3                   	retq   

0000000000004b8e <_Z14populateMatrixiiiib>:
    4b8e:	f3 0f 1e fa          	endbr64 
    4b92:	55                   	push   %rbp
    4b93:	48 89 e5             	mov    %rsp,%rbp
    4b96:	48 81 ec 20 01 00 00 	sub    $0x120,%rsp
    4b9d:	89 bd fc fe ff ff    	mov    %edi,-0x104(%rbp)
    4ba3:	89 b5 f8 fe ff ff    	mov    %esi,-0x108(%rbp)
    4ba9:	89 95 f4 fe ff ff    	mov    %edx,-0x10c(%rbp)
    4baf:	89 8d f0 fe ff ff    	mov    %ecx,-0x110(%rbp)
    4bb5:	44 89 c0             	mov    %r8d,%eax
    4bb8:	88 85 ec fe ff ff    	mov    %al,-0x114(%rbp)
    4bbe:	64 48 8b 04 25 28 00 	mov    %fs:0x28,%rax
    4bc5:	00 00 
    4bc7:	48 89 45 f8          	mov    %rax,-0x8(%rbp)
    4bcb:	31 c0                	xor    %eax,%eax
    4bcd:	8b 85 fc fe ff ff    	mov    -0x104(%rbp),%eax
    4bd3:	83 e8 01             	sub    $0x1,%eax
    4bd6:	48 63 d0             	movslq %eax,%rdx
    4bd9:	48 8d 85 50 ff ff ff 	lea    -0xb0(%rbp),%rax
    4be0:	48 8d 35 89 16 05 00 	lea    0x51689(%rip),%rsi        # 56270 <gameMatrix>
    4be7:	48 89 c7             	mov    %rax,%rdi
    4bea:	e8 71 34 00 00       	callq  8060 <_ZN5Eigen9DenseBaseINS_6MatrixIdLin1ELin1ELi0ELin1ELin1EEEE3rowEl>
    4bef:	8b 85 f8 fe ff ff    	mov    -0x108(%rbp),%eax
    4bf5:	83 e8 01             	sub    $0x1,%eax
    4bf8:	48 63 d0             	movslq %eax,%rdx
    4bfb:	48 8d 45 90          	lea    -0x70(%rbp),%rax
    4bff:	48 8d 8d 50 ff ff ff 	lea    -0xb0(%rbp),%rcx
    4c06:	48 89 ce             	mov    %rcx,%rsi
    4c09:	48 89 c7             	mov    %rax,%rdi
    4c0c:	e8 8f 34 00 00       	callq  80a0 <_ZN5Eigen9DenseBaseINS_5BlockINS_6MatrixIdLin1ELin1ELi0ELin1ELin1EEELi1ELin1ELb0EEEE3colEl>
    4c11:	f2 0f 10 05 87 9c 03 	movsd  0x39c87(%rip),%xmm0        # 3e8a0 <_ZL17HIGH_MARGIN_SCALE+0xa6a0>
    4c18:	00 
    4c19:	f2 0f 11 85 28 ff ff 	movsd  %xmm0,-0xd8(%rbp)
    4c20:	ff 
    4c21:	48 8d 85 30 ff ff ff 	lea    -0xd0(%rbp),%rax
    4c28:	48 8d 95 28 ff ff ff 	lea    -0xd8(%rbp),%rdx
    4c2f:	48 8d 4d 90          	lea    -0x70(%rbp),%rcx
    4c33:	48 89 ce             	mov    %rcx,%rsi
    4c36:	48 89 c7             	mov    %rax,%rdi
    4c39:	e8 a2 34 00 00       	callq  80e0 <_ZN5Eigen9DenseBaseINS_5BlockINS1_INS_6MatrixIdLin1ELin1ELi0ELin1ELin1EEELi1ELin1ELb0EEELi1ELi1ELb0EEEElsERKd>
    4c3e:	48 8d 85 30 ff ff ff 	lea    -0xd0(%rbp),%rax
    4c45:	48 89 c7             	mov    %rax,%rdi
    4c48:	e8 c9 34 00 00       	callq  8116 <_ZN5Eigen16CommaInitializerINS_5BlockINS1_INS_6MatrixIdLin1ELin1ELi0ELin1ELin1EEELi1ELin1ELb0EEELi1ELi1ELb0EEEED1Ev>
    4c4d:	8b 85 f8 fe ff ff    	mov    -0x108(%rbp),%eax
    4c53:	83 e8 01             	sub    $0x1,%eax
    4c56:	48 63 d0             	movslq %eax,%rdx
    4c59:	48 8d 85 50 ff ff ff 	lea    -0xb0(%rbp),%rax
    4c60:	48 8d 35 09 16 05 00 	lea    0x51609(%rip),%rsi        # 56270 <gameMatrix>
    4c67:	48 89 c7             	mov    %rax,%rdi
    4c6a:	e8 f1 33 00 00       	callq  8060 <_ZN5Eigen9DenseBaseINS_6MatrixIdLin1ELin1ELi0ELin1ELin1EEEE3rowEl>
    4c6f:	8b 85 fc fe ff ff    	mov    -0x104(%rbp),%eax
    4c75:	83 e8 01             	sub    $0x1,%eax
    4c78:	48 63 d0             	movslq %eax,%rdx
    4c7b:	48 8d 45 90          	lea    -0x70(%rbp),%rax
    4c7f:	48 8d 8d 50 ff ff ff 	lea    -0xb0(%rbp),%rcx
    4c86:	48 89 ce             	mov    %rcx,%rsi
    4c89:	48 89 c7             	mov    %rax,%rdi
    4c8c:	e8 0f 34 00 00       	callq  80a0 <_ZN5Eigen9DenseBaseINS_5BlockINS_6MatrixIdLin1ELin1ELi0ELin1ELin1EEELi1ELin1ELb0EEEE3colEl>
    4c91:	f2 0f 10 05 07 9c 03 	movsd  0x39c07(%rip),%xmm0        # 3e8a0 <_ZL17HIGH_MARGIN_SCALE+0xa6a0>
    4c98:	00 
    4c99:	f2 0f 11 85 28 ff ff 	movsd  %xmm0,-0xd8(%rbp)
    4ca0:	ff 
    4ca1:	48 8d 85 30 ff ff ff 	lea    -0xd0(%rbp),%rax
    4ca8:	48 8d 95 28 ff ff ff 	lea    -0xd8(%rbp),%rdx
    4caf:	48 8d 4d 90          	lea    -0x70(%rbp),%rcx
    4cb3:	48 89 ce             	mov    %rcx,%rsi
    4cb6:	48 89 c7             	mov    %rax,%rdi
    4cb9:	e8 22 34 00 00       	callq  80e0 <_ZN5Eigen9DenseBaseINS_5BlockINS1_INS_6MatrixIdLin1ELin1ELi0ELin1ELin1EEELi1ELin1ELb0EEELi1ELi1ELb0EEEElsERKd>
    4cbe:	48 8d 85 30 ff ff ff 	lea    -0xd0(%rbp),%rax
    4cc5:	48 89 c7             	mov    %rax,%rdi
    4cc8:	e8 49 34 00 00       	callq  8116 <_ZN5Eigen16CommaInitializerINS_5BlockINS1_INS_6MatrixIdLin1ELin1ELi0ELin1ELin1EEELi1ELin1ELb0EEELi1ELi1ELb0EEEED1Ev>
    4ccd:	8b 85 fc fe ff ff    	mov    -0x104(%rbp),%eax
    4cd3:	83 e8 01             	sub    $0x1,%eax
    4cd6:	48 63 d0             	movslq %eax,%rdx
    4cd9:	48 8d 85 50 ff ff ff 	lea    -0xb0(%rbp),%rax
    4ce0:	48 8d 35 89 15 05 00 	lea    0x51589(%rip),%rsi        # 56270 <gameMatrix>
    4ce7:	48 89 c7             	mov    %rax,%rdi
    4cea:	e8 71 33 00 00       	callq  8060 <_ZN5Eigen9DenseBaseINS_6MatrixIdLin1ELin1ELi0ELin1ELin1EEEE3rowEl>
    4cef:	8b 85 fc fe ff ff    	mov    -0x104(%rbp),%eax
    4cf5:	83 e8 01             	sub    $0x1,%eax
    4cf8:	48 63 d0             	movslq %eax,%rdx
    4cfb:	48 8d 45 90          	lea    -0x70(%rbp),%rax
    4cff:	48 8d 8d 50 ff ff ff 	lea    -0xb0(%rbp),%rcx
    4d06:	48 89 ce             	mov    %rcx,%rsi
    4d09:	48 89 c7             	mov    %rax,%rdi
    4d0c:	e8 8f 33 00 00       	callq  80a0 <_ZN5Eigen9DenseBaseINS_5BlockINS_6MatrixIdLin1ELin1ELi0ELin1ELin1EEELi1ELin1ELb0EEEE3colEl>
    4d11:	48 8d 85 fc fe ff ff 	lea    -0x104(%rbp),%rax
    4d18:	48 89 c6             	mov    %rax,%rsi
    4d1b:	48 8d 3d 1e 15 05 00 	lea    0x5151e(%rip),%rdi        # 56240 <teamMap>
    4d22:	e8 d9 30 00 00       	callq  7e00 <_ZNSt3mapIiP4TeamSt4lessIiESaISt4pairIKiS1_EEE2atERS5_>
    4d27:	48 8b 00             	mov    (%rax),%rax
    4d2a:	48 89 c7             	mov    %rax,%rdi
    4d2d:	e8 e2 d8 02 00       	callq  32614 <_ZN4Team17getNumGamesPlayedEv>
    4d32:	f2 0f 2a c0          	cvtsi2sd %eax,%xmm0
    4d36:	f2 0f 11 85 28 ff ff 	movsd  %xmm0,-0xd8(%rbp)
    4d3d:	ff 
    4d3e:	48 8d 85 30 ff ff ff 	lea    -0xd0(%rbp),%rax
    4d45:	48 8d 95 28 ff ff ff 	lea    -0xd8(%rbp),%rdx
    4d4c:	48 8d 4d 90          	lea    -0x70(%rbp),%rcx
    4d50:	48 89 ce             	mov    %rcx,%rsi
    4d53:	48 89 c7             	mov    %rax,%rdi
    4d56:	e8 85 33 00 00       	callq  80e0 <_ZN5Eigen9DenseBaseINS_5BlockINS1_INS_6MatrixIdLin1ELin1ELi0ELin1ELin1EEELi1ELin1ELb0EEELi1ELi1ELb0EEEElsERKd>
    4d5b:	48 8d 85 30 ff ff ff 	lea    -0xd0(%rbp),%rax
    4d62:	48 89 c7             	mov    %rax,%rdi
    4d65:	e8 ac 33 00 00       	callq  8116 <_ZN5Eigen16CommaInitializerINS_5BlockINS1_INS_6MatrixIdLin1ELin1ELi0ELin1ELin1EEELi1ELin1ELb0EEELi1ELi1ELb0EEEED1Ev>
    4d6a:	8b 85 f8 fe ff ff    	mov    -0x108(%rbp),%eax
    4d70:	83 e8 01             	sub    $0x1,%eax
    4d73:	48 63 d0             	movslq %eax,%rdx
    4d76:	48 8d 85 50 ff ff ff 	lea    -0xb0(%rbp),%rax
    4d7d:	48 8d 35 ec 14 05 00 	lea    0x514ec(%rip),%rsi        # 56270 <gameMatrix>
    4d84:	48 89 c7             	mov    %rax,%rdi
    4d87:	e8 d4 32 00 00       	callq  8060 <_ZN5Eigen9DenseBaseINS_6MatrixIdLin1ELin1ELi0ELin1ELin1EEEE3rowEl>
    4d8c:	8b 85 f8 fe ff ff    	mov    -0x108(%rbp),%eax
    4d92:	83 e8 01             	sub    $0x1,%eax
    4d95:	48 63 d0             	movslq %eax,%rdx
    4d98:	48 8d 45 90          	lea    -0x70(%rbp),%rax
    4d9c:	48 8d 8d 50 ff ff ff 	lea    -0xb0(%rbp),%rcx
    4da3:	48 89 ce             	mov    %rcx,%rsi
    4da6:	48 89 c7             	mov    %rax,%rdi
    4da9:	e8 f2 32 00 00       	callq  80a0 <_ZN5Eigen9DenseBaseINS_5BlockINS_6MatrixIdLin1ELin1ELi0ELin1ELin1EEELi1ELin1ELb0EEEE3colEl>
    4dae:	48 8d 85 f8 fe ff ff 	lea    -0x108(%rbp),%rax
    4db5:	48 89 c6             	mov    %rax,%rsi
    4db8:	48 8d 3d 81 14 05 00 	lea    0x51481(%rip),%rdi        # 56240 <teamMap>
    4dbf:	e8 3c 30 00 00       	callq  7e00 <_ZNSt3mapIiP4TeamSt4lessIiESaISt4pairIKiS1_EEE2atERS5_>
    4dc4:	48 8b 00             	mov    (%rax),%rax
    4dc7:	48 89 c7             	mov    %rax,%rdi
    4dca:	e8 45 d8 02 00       	callq  32614 <_ZN4Team17getNumGamesPlayedEv>
    4dcf:	f2 0f 2a c0          	cvtsi2sd %eax,%xmm0
    4dd3:	f2 0f 11 85 28 ff ff 	movsd  %xmm0,-0xd8(%rbp)
    4dda:	ff 
    4ddb:	48 8d 85 30 ff ff ff 	lea    -0xd0(%rbp),%rax
    4de2:	48 8d 95 28 ff ff ff 	lea    -0xd8(%rbp),%rdx
    4de9:	48 8d 4d 90          	lea    -0x70(%rbp),%rcx
    4ded:	48 89 ce             	mov    %rcx,%rsi
    4df0:	48 89 c7             	mov    %rax,%rdi
    4df3:	e8 e8 32 00 00       	callq  80e0 <_ZN5Eigen9DenseBaseINS_5BlockINS1_INS_6MatrixIdLin1ELin1ELi0ELin1ELin1EEELi1ELin1ELb0EEELi1ELi1ELb0EEEElsERKd>
    4df8:	48 8d 85 30 ff ff ff 	lea    -0xd0(%rbp),%rax
    4dff:	48 89 c7             	mov    %rax,%rdi
    4e02:	e8 0f 33 00 00       	callq  8116 <_ZN5Eigen16CommaInitializerINS_5BlockINS1_INS_6MatrixIdLin1ELin1ELi0ELin1ELin1EEELi1ELin1ELb0EEELi1ELi1ELb0EEEED1Ev>
    4e07:	8b 85 f4 fe ff ff    	mov    -0x10c(%rbp),%eax
    4e0d:	2b 85 f0 fe ff ff    	sub    -0x110(%rbp),%eax
    4e13:	99                   	cltd   
    4e14:	31 d0                	xor    %edx,%eax
    4e16:	29 d0                	sub    %edx,%eax
    4e18:	83 f8 14             	cmp    $0x14,%eax
    4e1b:	7e 0f                	jle    4e2c <_Z14populateMatrixiiiib+0x29e>
    4e1d:	0f b6 85 ec fe ff ff 	movzbl -0x114(%rbp),%eax
    4e24:	85 c0                	test   %eax,%eax
    4e26:	0f 85 b4 02 00 00    	jne    50e0 <_Z14populateMatrixiiiib+0x552>
    4e2c:	8b 85 f4 fe ff ff    	mov    -0x10c(%rbp),%eax
    4e32:	3b 85 f0 fe ff ff    	cmp    -0x110(%rbp),%eax
    4e38:	0f 8e 51 01 00 00    	jle    4f8f <_Z14populateMatrixiiiib+0x401>
    4e3e:	8b 85 fc fe ff ff    	mov    -0x104(%rbp),%eax
    4e44:	83 e8 01             	sub    $0x1,%eax
    4e47:	48 63 d0             	movslq %eax,%rdx
    4e4a:	48 8d 45 90          	lea    -0x70(%rbp),%rax
    4e4e:	48 8d 35 3b 14 05 00 	lea    0x5143b(%rip),%rsi        # 56290 <scores>
    4e55:	48 89 c7             	mov    %rax,%rdi
    4e58:	e8 e3 28 00 00       	callq  7740 <_ZN5Eigen9DenseBaseINS_6MatrixIdLin1ELi1ELi0ELin1ELi1EEEE3rowEl>
    4e5d:	48 8d 45 90          	lea    -0x70(%rbp),%rax
    4e61:	48 89 c7             	mov    %rax,%rdi
    4e64:	e8 17 29 00 00       	callq  7780 <_ZNK5Eigen9DenseBaseINS_5BlockINS_6MatrixIdLin1ELi1ELi0ELin1ELi1EEELi1ELi1ELb0EEEE5valueEv>
    4e69:	f2 0f 10 00          	movsd  (%rax),%xmm0
    4e6d:	f2 0f 2c c0          	cvttsd2si %xmm0,%eax
    4e71:	89 85 24 ff ff ff    	mov    %eax,-0xdc(%rbp)
    4e77:	8b 85 fc fe ff ff    	mov    -0x104(%rbp),%eax
    4e7d:	83 e8 01             	sub    $0x1,%eax
    4e80:	48 63 d0             	movslq %eax,%rdx
    4e83:	48 8d 45 90          	lea    -0x70(%rbp),%rax
    4e87:	48 8d 35 02 14 05 00 	lea    0x51402(%rip),%rsi        # 56290 <scores>
    4e8e:	48 89 c7             	mov    %rax,%rdi
    4e91:	e8 aa 28 00 00       	callq  7740 <_ZN5Eigen9DenseBaseINS_6MatrixIdLin1ELi1ELi0ELin1ELi1EEEE3rowEl>
    4e96:	8b 85 f4 fe ff ff    	mov    -0x10c(%rbp),%eax
    4e9c:	2b 85 f0 fe ff ff    	sub    -0x110(%rbp),%eax
    4ea2:	89 c2                	mov    %eax,%edx
    4ea4:	8b 85 24 ff ff ff    	mov    -0xdc(%rbp),%eax
    4eaa:	01 d0                	add    %edx,%eax
    4eac:	f2 0f 2a c0          	cvtsi2sd %eax,%xmm0
    4eb0:	f2 0f 11 85 30 ff ff 	movsd  %xmm0,-0xd0(%rbp)
    4eb7:	ff 
    4eb8:	48 8d 85 50 ff ff ff 	lea    -0xb0(%rbp),%rax
    4ebf:	48 8d 95 30 ff ff ff 	lea    -0xd0(%rbp),%rdx
    4ec6:	48 8d 4d 90          	lea    -0x70(%rbp),%rcx
    4eca:	48 89 ce             	mov    %rcx,%rsi
    4ecd:	48 89 c7             	mov    %rax,%rdi
    4ed0:	e8 61 32 00 00       	callq  8136 <_ZN5Eigen9DenseBaseINS_5BlockINS_6MatrixIdLin1ELi1ELi0ELin1ELi1EEELi1ELi1ELb0EEEElsERKd>
    4ed5:	48 8d 85 50 ff ff ff 	lea    -0xb0(%rbp),%rax
    4edc:	48 89 c7             	mov    %rax,%rdi
    4edf:	e8 88 32 00 00       	callq  816c <_ZN5Eigen16CommaInitializerINS_5BlockINS_6MatrixIdLin1ELi1ELi0ELin1ELi1EEELi1ELi1ELb0EEEED1Ev>
    4ee4:	8b 85 f8 fe ff ff    	mov    -0x108(%rbp),%eax
    4eea:	83 e8 01             	sub    $0x1,%eax
    4eed:	48 63 d0             	movslq %eax,%rdx
    4ef0:	48 8d 45 90          	lea    -0x70(%rbp),%rax
    4ef4:	48 8d 35 95 13 05 00 	lea    0x51395(%rip),%rsi        # 56290 <scores>
    4efb:	48 89 c7             	mov    %rax,%rdi
    4efe:	e8 3d 28 00 00       	callq  7740 <_ZN5Eigen9DenseBaseINS_6MatrixIdLin1ELi1ELi0ELin1ELi1EEEE3rowEl>
    4f03:	48 8d 45 90          	lea    -0x70(%rbp),%rax
    4f07:	48 89 c7             	mov    %rax,%rdi
    4f0a:	e8 71 28 00 00       	callq  7780 <_ZNK5Eigen9DenseBaseINS_5BlockINS_6MatrixIdLin1ELi1ELi0ELin1ELi1EEELi1ELi1ELb0EEEE5valueEv>
    4f0f:	f2 0f 10 00          	movsd  (%rax),%xmm0
    4f13:	f2 0f 2c c0          	cvttsd2si %xmm0,%eax
    4f17:	89 85 24 ff ff ff    	mov    %eax,-0xdc(%rbp)
    4f1d:	8b 85 f8 fe ff ff    	mov    -0x108(%rbp),%eax
    4f23:	83 e8 01             	sub    $0x1,%eax
    4f26:	48 63 d0             	movslq %eax,%rdx
    4f29:	48 8d 45 90          	lea    -0x70(%rbp),%rax
    4f2d:	48 8d 35 5c 13 05 00 	lea    0x5135c(%rip),%rsi        # 56290 <scores>
    4f34:	48 89 c7             	mov    %rax,%rdi
    4f37:	e8 04 28 00 00       	callq  7740 <_ZN5Eigen9DenseBaseINS_6MatrixIdLin1ELi1ELi0ELin1ELi1EEEE3rowEl>
    4f3c:	8b 85 f0 fe ff ff    	mov    -0x110(%rbp),%eax
    4f42:	2b 85 f4 fe ff ff    	sub    -0x10c(%rbp),%eax
    4f48:	89 c2                	mov    %eax,%edx
    4f4a:	8b 85 24 ff ff ff    	mov    -0xdc(%rbp),%eax
    4f50:	01 d0                	add    %edx,%eax
    4f52:	f2 0f 2a c0          	cvtsi2sd %eax,%xmm0
    4f56:	f2 0f 11 85 30 ff ff 	movsd  %xmm0,-0xd0(%rbp)
    4f5d:	ff 
    4f5e:	48 8d 85 50 ff ff ff 	lea    -0xb0(%rbp),%rax
    4f65:	48 8d 95 30 ff ff ff 	lea    -0xd0(%rbp),%rdx
    4f6c:	48 8d 4d 90          	lea    -0x70(%rbp),%rcx
    4f70:	48 89 ce             	mov    %rcx,%rsi
    4f73:	48 89 c7             	mov    %rax,%rdi
    4f76:	e8 bb 31 00 00       	callq  8136 <_ZN5Eigen9DenseBaseINS_5BlockINS_6MatrixIdLin1ELi1ELi0ELin1ELi1EEELi1ELi1ELb0EEEElsERKd>
    4f7b:	48 8d 85 50 ff ff ff 	lea    -0xb0(%rbp),%rax
    4f82:	48 89 c7             	mov    %rax,%rdi
    4f85:	e8 e2 31 00 00       	callq  816c <_ZN5Eigen16CommaInitializerINS_5BlockINS_6MatrixIdLin1ELi1ELi0ELin1ELi1EEELi1ELi1ELb0EEEED1Ev>
    4f8a:	e9 9e 04 00 00       	jmpq   542d <_Z14populateMatrixiiiib+0x89f>
    4f8f:	8b 85 f8 fe ff ff    	mov    -0x108(%rbp),%eax
    4f95:	83 e8 01             	sub    $0x1,%eax
    4f98:	48 63 d0             	movslq %eax,%rdx
    4f9b:	48 8d 45 90          	lea    -0x70(%rbp),%rax
    4f9f:	48 8d 35 ea 12 05 00 	lea    0x512ea(%rip),%rsi        # 56290 <scores>
    4fa6:	48 89 c7             	mov    %rax,%rdi
    4fa9:	e8 92 27 00 00       	callq  7740 <_ZN5Eigen9DenseBaseINS_6MatrixIdLin1ELi1ELi0ELin1ELi1EEEE3rowEl>
    4fae:	48 8d 45 90          	lea    -0x70(%rbp),%rax
    4fb2:	48 89 c7             	mov    %rax,%rdi
    4fb5:	e8 c6 27 00 00       	callq  7780 <_ZNK5Eigen9DenseBaseINS_5BlockINS_6MatrixIdLin1ELi1ELi0ELin1ELi1EEELi1ELi1ELb0EEEE5valueEv>
    4fba:	f2 0f 10 00          	movsd  (%rax),%xmm0
    4fbe:	f2 0f 2c c0          	cvttsd2si %xmm0,%eax
    4fc2:	89 85 20 ff ff ff    	mov    %eax,-0xe0(%rbp)
    4fc8:	8b 85 f8 fe ff ff    	mov    -0x108(%rbp),%eax
    4fce:	83 e8 01             	sub    $0x1,%eax
    4fd1:	48 63 d0             	movslq %eax,%rdx
    4fd4:	48 8d 45 90          	lea    -0x70(%rbp),%rax
    4fd8:	48 8d 35 b1 12 05 00 	lea    0x512b1(%rip),%rsi        # 56290 <scores>
    4fdf:	48 89 c7             	mov    %rax,%rdi
    4fe2:	e8 59 27 00 00       	callq  7740 <_ZN5Eigen9DenseBaseINS_6MatrixIdLin1ELi1ELi0ELin1ELi1EEEE3rowEl>
    4fe7:	8b 85 f0 fe ff ff    	mov    -0x110(%rbp),%eax
    4fed:	2b 85 f4 fe ff ff    	sub    -0x10c(%rbp),%eax
    4ff3:	89 c2                	mov    %eax,%edx
    4ff5:	8b 85 20 ff ff ff    	mov    -0xe0(%rbp),%eax
    4ffb:	01 d0                	add    %edx,%eax
    4ffd:	f2 0f 2a c0          	cvtsi2sd %eax,%xmm0
    5001:	f2 0f 11 85 30 ff ff 	movsd  %xmm0,-0xd0(%rbp)
    5008:	ff 
    5009:	48 8d 85 50 ff ff ff 	lea    -0xb0(%rbp),%rax
    5010:	48 8d 95 30 ff ff ff 	lea    -0xd0(%rbp),%rdx
    5017:	48 8d 4d 90          	lea    -0x70(%rbp),%rcx
    501b:	48 89 ce             	mov    %rcx,%rsi
    501e:	48 89 c7             	mov    %rax,%rdi
    5021:	e8 10 31 00 00       	callq  8136 <_ZN5Eigen9DenseBaseINS_5BlockINS_6MatrixIdLin1ELi1ELi0ELin1ELi1EEELi1ELi1ELb0EEEElsERKd>
    5026:	48 8d 85 50 ff ff ff 	lea    -0xb0(%rbp),%rax
    502d:	48 89 c7             	mov    %rax,%rdi
    5030:	e8 37 31 00 00       	callq  816c <_ZN5Eigen16CommaInitializerINS_5BlockINS_6MatrixIdLin1ELi1ELi0ELin1ELi1EEELi1ELi1ELb0EEEED1Ev>
    5035:	8b 85 fc fe ff ff    	mov    -0x104(%rbp),%eax
    503b:	83 e8 01             	sub    $0x1,%eax
    503e:	48 63 d0             	movslq %eax,%rdx
    5041:	48 8d 45 90          	lea    -0x70(%rbp),%rax
    5045:	48 8d 35 44 12 05 00 	lea    0x51244(%rip),%rsi        # 56290 <scores>
    504c:	48 89 c7             	mov    %rax,%rdi
    504f:	e8 ec 26 00 00       	callq  7740 <_ZN5Eigen9DenseBaseINS_6MatrixIdLin1ELi1ELi0ELin1ELi1EEEE3rowEl>
    5054:	48 8d 45 90          	lea    -0x70(%rbp),%rax
    5058:	48 89 c7             	mov    %rax,%rdi
    505b:	e8 20 27 00 00       	callq  7780 <_ZNK5Eigen9DenseBaseINS_5BlockINS_6MatrixIdLin1ELi1ELi0ELin1ELi1EEELi1ELi1ELb0EEEE5valueEv>
    5060:	f2 0f 10 00          	movsd  (%rax),%xmm0
    5064:	f2 0f 2c c0          	cvttsd2si %xmm0,%eax
    5068:	89 85 20 ff ff ff    	mov    %eax,-0xe0(%rbp)
    506e:	8b 85 fc fe ff ff    	mov    -0x104(%rbp),%eax
    5074:	83 e8 01             	sub    $0x1,%eax
    5077:	48 63 d0             	movslq %eax,%rdx
    507a:	48 8d 45 90          	lea    -0x70(%rbp),%rax
    507e:	48 8d 35 0b 12 05 00 	lea    0x5120b(%rip),%rsi        # 56290 <scores>
    5085:	48 89 c7             	mov    %rax,%rdi
    5088:	e8 b3 26 00 00       	callq  7740 <_ZN5Eigen9DenseBaseINS_6MatrixIdLin1ELi1ELi0ELin1ELi1EEEE3rowEl>
    508d:	8b 85 f4 fe ff ff    	mov    -0x10c(%rbp),%eax
    5093:	2b 85 f0 fe ff ff    	sub    -0x110(%rbp),%eax
    5099:	89 c2                	mov    %eax,%edx
    509b:	8b 85 20 ff ff ff    	mov    -0xe0(%rbp),%eax
    50a1:	01 d0                	add    %edx,%eax
    50a3:	f2 0f 2a c0          	cvtsi2sd %eax,%xmm0
    50a7:	f2 0f 11 85 30 ff ff 	movsd  %xmm0,-0xd0(%rbp)
    50ae:	ff 
    50af:	48 8d 85 50 ff ff ff 	lea    -0xb0(%rbp),%rax
    50b6:	48 8d 95 30 ff ff ff 	lea    -0xd0(%rbp),%rdx
    50bd:	48 8d 4d 90          	lea    -0x70(%rbp),%rcx
    50c1:	48 89 ce             	mov    %rcx,%rsi
    50c4:	48 89 c7             	mov    %rax,%rdi
    50c7:	e8 6a 30 00 00       	callq  8136 <_ZN5Eigen9DenseBaseINS_5BlockINS_6MatrixIdLin1ELi1ELi0ELin1ELi1EEELi1ELi1ELb0EEEElsERKd>
    50cc:	48 8d 85 50 ff ff ff 	lea    -0xb0(%rbp),%rax
    50d3:	48 89 c7             	mov    %rax,%rdi
    50d6:	e8 91 30 00 00       	callq  816c <_ZN5Eigen16CommaInitializerINS_5BlockINS_6MatrixIdLin1ELi1ELi0ELin1ELi1EEELi1ELi1ELb0EEEED1Ev>
    50db:	e9 4d 03 00 00       	jmpq   542d <_Z14populateMatrixiiiib+0x89f>
    50e0:	8b 85 f4 fe ff ff    	mov    -0x10c(%rbp),%eax
    50e6:	3b 85 f0 fe ff ff    	cmp    -0x110(%rbp),%eax
    50ec:	0f 8e 9f 01 00 00    	jle    5291 <_Z14populateMatrixiiiib+0x703>
    50f2:	8b 85 f4 fe ff ff    	mov    -0x10c(%rbp),%eax
    50f8:	2b 85 f0 fe ff ff    	sub    -0x110(%rbp),%eax
    50fe:	89 85 14 ff ff ff    	mov    %eax,-0xec(%rbp)
    5104:	8b 85 14 ff ff ff    	mov    -0xec(%rbp),%eax
    510a:	8d 50 ec             	lea    -0x14(%rax),%edx
    510d:	48 8b 05 94 97 03 00 	mov    0x39794(%rip),%rax        # 3e8a8 <_ZL17HIGH_MARGIN_SCALE+0xa6a8>
    5114:	66 48 0f 6e c0       	movq   %rax,%xmm0
    5119:	89 d7                	mov    %edx,%edi
    511b:	e8 6b 30 00 00       	callq  818b <_ZSt3powIidEN9__gnu_cxx11__promote_2IT_T0_NS0_9__promoteIS2_XsrSt12__is_integerIS2_E7__valueEE6__typeENS4_IS3_XsrS5_IS3_E7__valueEE6__typeEE6__typeES2_S3_>
    5120:	f2 0f 10 0d 68 97 03 	movsd  0x39768(%rip),%xmm1        # 3e890 <_ZL17HIGH_MARGIN_SCALE+0xa690>
    5127:	00 
    5128:	f2 0f 5c c1          	subsd  %xmm1,%xmm0
    512c:	66 0f 28 c8          	movapd %xmm0,%xmm1
    5130:	f2 0f 10 05 78 97 03 	movsd  0x39778(%rip),%xmm0        # 3e8b0 <_ZL17HIGH_MARGIN_SCALE+0xa6b0>
    5137:	00 
    5138:	f2 0f 59 c8          	mulsd  %xmm0,%xmm1
    513c:	f2 0f 10 05 74 97 03 	movsd  0x39774(%rip),%xmm0        # 3e8b8 <_ZL17HIGH_MARGIN_SCALE+0xa6b8>
    5143:	00 
    5144:	f2 0f 58 c1          	addsd  %xmm1,%xmm0
    5148:	f2 0f 2c c0          	cvttsd2si %xmm0,%eax
    514c:	89 85 18 ff ff ff    	mov    %eax,-0xe8(%rbp)
    5152:	8b 85 fc fe ff ff    	mov    -0x104(%rbp),%eax
    5158:	83 e8 01             	sub    $0x1,%eax
    515b:	48 63 d0             	movslq %eax,%rdx
    515e:	48 8d 45 90          	lea    -0x70(%rbp),%rax
    5162:	48 8d 35 27 11 05 00 	lea    0x51127(%rip),%rsi        # 56290 <scores>
    5169:	48 89 c7             	mov    %rax,%rdi
    516c:	e8 cf 25 00 00       	callq  7740 <_ZN5Eigen9DenseBaseINS_6MatrixIdLin1ELi1ELi0ELin1ELi1EEEE3rowEl>
    5171:	48 8d 45 90          	lea    -0x70(%rbp),%rax
    5175:	48 89 c7             	mov    %rax,%rdi
    5178:	e8 03 26 00 00       	callq  7780 <_ZNK5Eigen9DenseBaseINS_5BlockINS_6MatrixIdLin1ELi1ELi0ELin1ELi1EEELi1ELi1ELb0EEEE5valueEv>
    517d:	f2 0f 10 00          	movsd  (%rax),%xmm0
    5181:	f2 0f 2c c0          	cvttsd2si %xmm0,%eax
    5185:	89 85 1c ff ff ff    	mov    %eax,-0xe4(%rbp)
    518b:	8b 85 fc fe ff ff    	mov    -0x104(%rbp),%eax
    5191:	83 e8 01             	sub    $0x1,%eax
    5194:	48 63 d0             	movslq %eax,%rdx
    5197:	48 8d 45 90          	lea    -0x70(%rbp),%rax
    519b:	48 8d 35 ee 10 05 00 	lea    0x510ee(%rip),%rsi        # 56290 <scores>
    51a2:	48 89 c7             	mov    %rax,%rdi
    51a5:	e8 96 25 00 00       	callq  7740 <_ZN5Eigen9DenseBaseINS_6MatrixIdLin1ELi1ELi0ELin1ELi1EEEE3rowEl>
    51aa:	8b 95 1c ff ff ff    	mov    -0xe4(%rbp),%edx
    51b0:	8b 85 18 ff ff ff    	mov    -0xe8(%rbp),%eax
    51b6:	01 d0                	add    %edx,%eax
    51b8:	f2 0f 2a c0          	cvtsi2sd %eax,%xmm0
    51bc:	f2 0f 11 85 30 ff ff 	movsd  %xmm0,-0xd0(%rbp)
    51c3:	ff 
    51c4:	48 8d 85 50 ff ff ff 	lea    -0xb0(%rbp),%rax
    51cb:	48 8d 95 30 ff ff ff 	lea    -0xd0(%rbp),%rdx
    51d2:	48 8d 4d 90          	lea    -0x70(%rbp),%rcx
    51d6:	48 89 ce             	mov    %rcx,%rsi
    51d9:	48 89 c7             	mov    %rax,%rdi
    51dc:	e8 55 2f 00 00       	callq  8136 <_ZN5Eigen9DenseBaseINS_5BlockINS_6MatrixIdLin1ELi1ELi0ELin1ELi1EEELi1ELi1ELb0EEEElsERKd>
    51e1:	48 8d 85 50 ff ff ff 	lea    -0xb0(%rbp),%rax
    51e8:	48 89 c7             	mov    %rax,%rdi
    51eb:	e8 7c 2f 00 00       	callq  816c <_ZN5Eigen16CommaInitializerINS_5BlockINS_6MatrixIdLin1ELi1ELi0ELin1ELi1EEELi1ELi1ELb0EEEED1Ev>
    51f0:	8b 85 f8 fe ff ff    	mov    -0x108(%rbp),%eax
    51f6:	83 e8 01             	sub    $0x1,%eax
    51f9:	48 63 d0             	movslq %eax,%rdx
    51fc:	48 8d 45 90          	lea    -0x70(%rbp),%rax
    5200:	48 8d 35 89 10 05 00 	lea    0x51089(%rip),%rsi        # 56290 <scores>
    5207:	48 89 c7             	mov    %rax,%rdi
    520a:	e8 31 25 00 00       	callq  7740 <_ZN5Eigen9DenseBaseINS_6MatrixIdLin1ELi1ELi0ELin1ELi1EEEE3rowEl>
    520f:	48 8d 45 90          	lea    -0x70(%rbp),%rax
    5213:	48 89 c7             	mov    %rax,%rdi
    5216:	e8 65 25 00 00       	callq  7780 <_ZNK5Eigen9DenseBaseINS_5BlockINS_6MatrixIdLin1ELi1ELi0ELin1ELi1EEELi1ELi1ELb0EEEE5valueEv>
    521b:	f2 0f 10 00          	movsd  (%rax),%xmm0
    521f:	f2 0f 2c c0          	cvttsd2si %xmm0,%eax
    5223:	89 85 1c ff ff ff    	mov    %eax,-0xe4(%rbp)
    5229:	8b 85 f8 fe ff ff    	mov    -0x108(%rbp),%eax
    522f:	83 e8 01             	sub    $0x1,%eax
    5232:	48 63 d0             	movslq %eax,%rdx
    5235:	48 8d 45 90          	lea    -0x70(%rbp),%rax
    5239:	48 8d 35 50 10 05 00 	lea    0x51050(%rip),%rsi        # 56290 <scores>
    5240:	48 89 c7             	mov    %rax,%rdi
    5243:	e8 f8 24 00 00       	callq  7740 <_ZN5Eigen9DenseBaseINS_6MatrixIdLin1ELi1ELi0ELin1ELi1EEEE3rowEl>
    5248:	8b 85 1c ff ff ff    	mov    -0xe4(%rbp),%eax
    524e:	2b 85 18 ff ff ff    	sub    -0xe8(%rbp),%eax
    5254:	f2 0f 2a c0          	cvtsi2sd %eax,%xmm0
    5258:	f2 0f 11 85 30 ff ff 	movsd  %xmm0,-0xd0(%rbp)
    525f:	ff 
    5260:	48 8d 85 50 ff ff ff 	lea    -0xb0(%rbp),%rax
    5267:	48 8d 95 30 ff ff ff 	lea    -0xd0(%rbp),%rdx
    526e:	48 8d 4d 90          	lea    -0x70(%rbp),%rcx
    5272:	48 89 ce             	mov    %rcx,%rsi
    5275:	48 89 c7             	mov    %rax,%rdi
    5278:	e8 b9 2e 00 00       	callq  8136 <_ZN5Eigen9DenseBaseINS_5BlockINS_6MatrixIdLin1ELi1ELi0ELin1ELi1EEELi1ELi1ELb0EEEElsERKd>
    527d:	48 8d 85 50 ff ff ff 	lea    -0xb0(%rbp),%rax
    5284:	48 89 c7             	mov    %rax,%rdi
    5287:	e8 e0 2e 00 00       	callq  816c <_ZN5Eigen16CommaInitializerINS_5BlockINS_6MatrixIdLin1ELi1ELi0ELin1ELi1EEELi1ELi1ELb0EEEED1Ev>
    528c:	e9 9c 01 00 00       	jmpq   542d <_Z14populateMatrixiiiib+0x89f>
    5291:	8b 85 f0 fe ff ff    	mov    -0x110(%rbp),%eax
    5297:	2b 85 f4 fe ff ff    	sub    -0x10c(%rbp),%eax
    529d:	89 85 08 ff ff ff    	mov    %eax,-0xf8(%rbp)
    52a3:	8b 85 08 ff ff ff    	mov    -0xf8(%rbp),%eax
    52a9:	8d 50 ec             	lea    -0x14(%rax),%edx
    52ac:	48 8b 05 f5 95 03 00 	mov    0x395f5(%rip),%rax        # 3e8a8 <_ZL17HIGH_MARGIN_SCALE+0xa6a8>
    52b3:	66 48 0f 6e c0       	movq   %rax,%xmm0
    52b8:	89 d7                	mov    %edx,%edi
    52ba:	e8 cc 2e 00 00       	callq  818b <_ZSt3powIidEN9__gnu_cxx11__promote_2IT_T0_NS0_9__promoteIS2_XsrSt12__is_integerIS2_E7__valueEE6__typeENS4_IS3_XsrS5_IS3_E7__valueEE6__typeEE6__typeES2_S3_>
    52bf:	f2 0f 10 0d c9 95 03 	movsd  0x395c9(%rip),%xmm1        # 3e890 <_ZL17HIGH_MARGIN_SCALE+0xa690>
    52c6:	00 
    52c7:	f2 0f 5c c1          	subsd  %xmm1,%xmm0
    52cb:	66 0f 28 c8          	movapd %xmm0,%xmm1
    52cf:	f2 0f 10 05 d9 95 03 	movsd  0x395d9(%rip),%xmm0        # 3e8b0 <_ZL17HIGH_MARGIN_SCALE+0xa6b0>
    52d6:	00 
    52d7:	f2 0f 59 c8          	mulsd  %xmm0,%xmm1
    52db:	f2 0f 10 05 d5 95 03 	movsd  0x395d5(%rip),%xmm0        # 3e8b8 <_ZL17HIGH_MARGIN_SCALE+0xa6b8>
    52e2:	00 
    52e3:	f2 0f 58 c1          	addsd  %xmm1,%xmm0
    52e7:	f2 0f 2c c0          	cvttsd2si %xmm0,%eax
    52eb:	89 85 0c ff ff ff    	mov    %eax,-0xf4(%rbp)
    52f1:	8b 85 f8 fe ff ff    	mov    -0x108(%rbp),%eax
    52f7:	83 e8 01             	sub    $0x1,%eax
    52fa:	48 63 d0             	movslq %eax,%rdx
    52fd:	48 8d 45 90          	lea    -0x70(%rbp),%rax
    5301:	48 8d 35 88 0f 05 00 	lea    0x50f88(%rip),%rsi        # 56290 <scores>
    5308:	48 89 c7             	mov    %rax,%rdi
    530b:	e8 30 24 00 00       	callq  7740 <_ZN5Eigen9DenseBaseINS_6MatrixIdLin1ELi1ELi0ELin1ELi1EEEE3rowEl>
    5310:	48 8d 45 90          	lea    -0x70(%rbp),%rax
    5314:	48 89 c7             	mov    %rax,%rdi
    5317:	e8 64 24 00 00       	callq  7780 <_ZNK5Eigen9DenseBaseINS_5BlockINS_6MatrixIdLin1ELi1ELi0ELin1ELi1EEELi1ELi1ELb0EEEE5valueEv>
    531c:	f2 0f 10 00          	movsd  (%rax),%xmm0
    5320:	f2 0f 2c c0          	cvttsd2si %xmm0,%eax
    5324:	89 85 10 ff ff ff    	mov    %eax,-0xf0(%rbp)
    532a:	8b 85 f8 fe ff ff    	mov    -0x108(%rbp),%eax
    5330:	83 e8 01             	sub    $0x1,%eax
    5333:	48 63 d0             	movslq %eax,%rdx
    5336:	48 8d 45 90          	lea    -0x70(%rbp),%rax
    533a:	48 8d 35 4f 0f 05 00 	lea    0x50f4f(%rip),%rsi        # 56290 <scores>
    5341:	48 89 c7             	mov    %rax,%rdi
    5344:	e8 f7 23 00 00       	callq  7740 <_ZN5Eigen9DenseBaseINS_6MatrixIdLin1ELi1ELi0ELin1ELi1EEEE3rowEl>
    5349:	8b 95 10 ff ff ff    	mov    -0xf0(%rbp),%edx
    534f:	8b 85 0c ff ff ff    	mov    -0xf4(%rbp),%eax
    5355:	01 d0                	add    %edx,%eax
    5357:	f2 0f 2a c0          	cvtsi2sd %eax,%xmm0
    535b:	f2 0f 11 85 30 ff ff 	movsd  %xmm0,-0xd0(%rbp)
    5362:	ff 
    5363:	48 8d 85 50 ff ff ff 	lea    -0xb0(%rbp),%rax
    536a:	48 8d 95 30 ff ff ff 	lea    -0xd0(%rbp),%rdx
    5371:	48 8d 4d 90          	lea    -0x70(%rbp),%rcx
    5375:	48 89 ce             	mov    %rcx,%rsi
    5378:	48 89 c7             	mov    %rax,%rdi
    537b:	e8 b6 2d 00 00       	callq  8136 <_ZN5Eigen9DenseBaseINS_5BlockINS_6MatrixIdLin1ELi1ELi0ELin1ELi1EEELi1ELi1ELb0EEEElsERKd>
    5380:	48 8d 85 50 ff ff ff 	lea    -0xb0(%rbp),%rax
    5387:	48 89 c7             	mov    %rax,%rdi
    538a:	e8 dd 2d 00 00       	callq  816c <_ZN5Eigen16CommaInitializerINS_5BlockINS_6MatrixIdLin1ELi1ELi0ELin1ELi1EEELi1ELi1ELb0EEEED1Ev>
    538f:	8b 85 fc fe ff ff    	mov    -0x104(%rbp),%eax
    5395:	83 e8 01             	sub    $0x1,%eax
    5398:	48 63 d0             	movslq %eax,%rdx
    539b:	48 8d 45 90          	lea    -0x70(%rbp),%rax
    539f:	48 8d 35 ea 0e 05 00 	lea    0x50eea(%rip),%rsi        # 56290 <scores>
    53a6:	48 89 c7             	mov    %rax,%rdi
    53a9:	e8 92 23 00 00       	callq  7740 <_ZN5Eigen9DenseBaseINS_6MatrixIdLin1ELi1ELi0ELin1ELi1EEEE3rowEl>
    53ae:	48 8d 45 90          	lea    -0x70(%rbp),%rax
    53b2:	48 89 c7             	mov    %rax,%rdi
    53b5:	e8 c6 23 00 00       	callq  7780 <_ZNK5Eigen9DenseBaseINS_5BlockINS_6MatrixIdLin1ELi1ELi0ELin1ELi1EEELi1ELi1ELb0EEEE5valueEv>
    53ba:	f2 0f 10 00          	movsd  (%rax),%xmm0
    53be:	f2 0f 2c c0          	cvttsd2si %xmm0,%eax
    53c2:	89 85 10 ff ff ff    	mov    %eax,-0xf0(%rbp)
    53c8:	8b 85 fc fe ff ff    	mov    -0x104(%rbp),%eax
    53ce:	83 e8 01             	sub    $0x1,%eax
    53d1:	48 63 d0             	movslq %eax,%rdx
    53d4:	48 8d 45 90          	lea    -0x70(%rbp),%rax
    53d8:	48 8d 35 b1 0e 05 00 	lea    0x50eb1(%rip),%rsi        # 56290 <scores>
    53df:	48 89 c7             	mov    %rax,%rdi
    53e2:	e8 59 23 00 00       	callq  7740 <_ZN5Eigen9DenseBaseINS_6MatrixIdLin1ELi1ELi0ELin1ELi1EEEE3rowEl>
    53e7:	8b 85 10 ff ff ff    	mov    -0xf0(%rbp),%eax
    53ed:	2b 85 0c ff ff ff    	sub    -0xf4(%rbp),%eax
    53f3:	f2 0f 2a c0          	cvtsi2sd %eax,%xmm0
    53f7:	f2 0f 11 85 30 ff ff 	movsd  %xmm0,-0xd0(%rbp)
    53fe:	ff 
    53ff:	48 8d 85 50 ff ff ff 	lea    -0xb0(%rbp),%rax
    5406:	48 8d 95 30 ff ff ff 	lea    -0xd0(%rbp),%rdx
    540d:	48 8d 4d 90          	lea    -0x70(%rbp),%rcx
    5411:	48 89 ce             	mov    %rcx,%rsi
    5414:	48 89 c7             	mov    %rax,%rdi
    5417:	e8 1a 2d 00 00       	callq  8136 <_ZN5Eigen9DenseBaseINS_5BlockINS_6MatrixIdLin1ELi1ELi0ELin1ELi1EEELi1ELi1ELb0EEEElsERKd>
    541c:	48 8d 85 50 ff ff ff 	lea    -0xb0(%rbp),%rax
    5423:	48 89 c7             	mov    %rax,%rdi
    5426:	e8 41 2d 00 00       	callq  816c <_ZN5Eigen16CommaInitializerINS_5BlockINS_6MatrixIdLin1ELi1ELi0ELin1ELi1EEELi1ELi1ELb0EEEED1Ev>
    542b:	eb 00                	jmp    542d <_Z14populateMatrixiiiib+0x89f>
    542d:	90                   	nop
    542e:	48 8b 45 f8          	mov    -0x8(%rbp),%rax
    5432:	64 48 33 04 25 28 00 	xor    %fs:0x28,%rax
    5439:	00 00 
    543b:	74 05                	je     5442 <_Z14populateMatrixiiiib+0x8b4>
    543d:	e8 6e e2 ff ff       	callq  36b0 <__stack_chk_fail@plt>
    5442:	c9                   	leaveq 
    5443:	c3                   	retq   

0000000000005444 <_Z24construct_correct_vectorNSt7__cxx1112basic_stringIcSt11char_traitsIcESaIcEEE>:
    5444:	f3 0f 1e fa          	endbr64 
    5448:	55                   	push   %rbp
    5449:	48 89 e5             	mov    %rsp,%rbp
    544c:	53                   	push   %rbx
    544d:	48 81 ec 78 02 00 00 	sub    $0x278,%rsp
    5454:	48 89 bd 88 fd ff ff 	mov    %rdi,-0x278(%rbp)
    545b:	64 48 8b 04 25 28 00 	mov    %fs:0x28,%rax
    5462:	00 00 
    5464:	48 89 45 e8          	mov    %rax,-0x18(%rbp)
    5468:	31 c0                	xor    %eax,%eax
    546a:	c7 85 9c fd ff ff 01 	movl   $0x1,-0x264(%rbp)
    5471:	00 00 00 
    5474:	8b 85 9c fd ff ff    	mov    -0x264(%rbp),%eax
    547a:	83 f8 40             	cmp    $0x40,%eax
    547d:	7f 27                	jg     54a6 <_Z24construct_correct_vectorNSt7__cxx1112basic_stringIcSt11char_traitsIcESaIcEEE+0x62>
    547f:	48 8d 85 9c fd ff ff 	lea    -0x264(%rbp),%rax
    5486:	48 89 c6             	mov    %rax,%rsi
    5489:	48 8d 3d 90 0d 05 00 	lea    0x50d90(%rip),%rdi        # 56220 <correct_rank>
    5490:	e8 1b 2d 00 00       	callq  81b0 <_ZNSt6vectorIiSaIiEE9push_backERKi>
    5495:	8b 85 9c fd ff ff    	mov    -0x264(%rbp),%eax
    549b:	83 c0 01             	add    $0x1,%eax
    549e:	89 85 9c fd ff ff    	mov    %eax,-0x264(%rbp)
    54a4:	eb ce                	jmp    5474 <_Z24construct_correct_vectorNSt7__cxx1112basic_stringIcSt11char_traitsIcESaIcEEE+0x30>
    54a6:	48 8d 85 a0 fd ff ff 	lea    -0x260(%rbp),%rax
    54ad:	48 89 c7             	mov    %rax,%rdi
    54b0:	e8 7b e2 ff ff       	callq  3730 <_ZNSt7__cxx1112basic_stringIcSt11char_traitsIcESaIcEEC1Ev@plt>
    54b5:	48 8d 85 c0 fd ff ff 	lea    -0x240(%rbp),%rax
    54bc:	48 89 c7             	mov    %rax,%rdi
    54bf:	e8 6c e2 ff ff       	callq  3730 <_ZNSt7__cxx1112basic_stringIcSt11char_traitsIcESaIcEEC1Ev@plt>
    54c4:	48 8b 8d 88 fd ff ff 	mov    -0x278(%rbp),%rcx
    54cb:	48 8d 85 e0 fd ff ff 	lea    -0x220(%rbp),%rax
    54d2:	ba 08 00 00 00       	mov    $0x8,%edx
    54d7:	48 89 ce             	mov    %rcx,%rsi
    54da:	48 89 c7             	mov    %rax,%rdi
    54dd:	e8 ce e2 ff ff       	callq  37b0 <_ZNSt14basic_ifstreamIcSt11char_traitsIcEEC1ERKNSt7__cxx1112basic_stringIcS1_SaIcEEESt13_Ios_Openmode@plt>
    54e2:	48 8d 85 e0 fd ff ff 	lea    -0x220(%rbp),%rax
    54e9:	48 89 c7             	mov    %rax,%rdi
    54ec:	e8 af e2 ff ff       	callq  37a0 <_ZNSt14basic_ifstreamIcSt11char_traitsIcEE7is_openEv@plt>
    54f1:	84 c0                	test   %al,%al
    54f3:	0f 84 a0 00 00 00    	je     5599 <_Z24construct_correct_vectorNSt7__cxx1112basic_stringIcSt11char_traitsIcESaIcEEE+0x155>
    54f9:	48 8d 8d a0 fd ff ff 	lea    -0x260(%rbp),%rcx
    5500:	48 8d 85 e0 fd ff ff 	lea    -0x220(%rbp),%rax
    5507:	ba 20 00 00 00       	mov    $0x20,%edx
    550c:	48 89 ce             	mov    %rcx,%rsi
    550f:	48 89 c7             	mov    %rax,%rdi
    5512:	e8 59 e3 ff ff       	callq  3870 <_ZSt7getlineIcSt11char_traitsIcESaIcEERSt13basic_istreamIT_T0_ES7_RNSt7__cxx1112basic_stringIS4_S5_T1_EES4_@plt>
    5517:	48 8b 10             	mov    (%rax),%rdx
    551a:	48 83 ea 18          	sub    $0x18,%rdx
    551e:	48 8b 12             	mov    (%rdx),%rdx
    5521:	48 01 d0             	add    %rdx,%rax
    5524:	48 89 c7             	mov    %rax,%rdi
    5527:	e8 c4 e1 ff ff       	callq  36f0 <_ZNKSt9basic_iosIcSt11char_traitsIcEEcvbEv@plt>
    552c:	84 c0                	test   %al,%al
    552e:	74 58                	je     5588 <_Z24construct_correct_vectorNSt7__cxx1112basic_stringIcSt11char_traitsIcESaIcEEE+0x144>
    5530:	48 8d 8d c0 fd ff ff 	lea    -0x240(%rbp),%rcx
    5537:	48 8d 85 e0 fd ff ff 	lea    -0x220(%rbp),%rax
    553e:	ba 0a 00 00 00       	mov    $0xa,%edx
    5543:	48 89 ce             	mov    %rcx,%rsi
    5546:	48 89 c7             	mov    %rax,%rdi
    5549:	e8 22 e3 ff ff       	callq  3870 <_ZSt7getlineIcSt11char_traitsIcESaIcEERSt13basic_istreamIT_T0_ES7_RNSt7__cxx1112basic_stringIS4_S5_T1_EES4_@plt>
    554e:	48 8d 85 a0 fd ff ff 	lea    -0x260(%rbp),%rax
    5555:	ba 0a 00 00 00       	mov    $0xa,%edx
    555a:	be 00 00 00 00       	mov    $0x0,%esi
    555f:	48 89 c7             	mov    %rax,%rdi
    5562:	e8 43 06 00 00       	callq  5baa <_ZNSt7__cxx114stoiERKNS_12basic_stringIcSt11char_traitsIcESaIcEEEPmi>
    5567:	89 85 9c fd ff ff    	mov    %eax,-0x264(%rbp)
    556d:	48 8d 85 9c fd ff ff 	lea    -0x264(%rbp),%rax
    5574:	48 89 c6             	mov    %rax,%rsi
    5577:	48 8d 3d 62 0c 05 00 	lea    0x50c62(%rip),%rdi        # 561e0 <correct_ids>
    557e:	e8 2d 2c 00 00       	callq  81b0 <_ZNSt6vectorIiSaIiEE9push_backERKi>
    5583:	e9 71 ff ff ff       	jmpq   54f9 <_Z24construct_correct_vectorNSt7__cxx1112basic_stringIcSt11char_traitsIcESaIcEEE+0xb5>
    5588:	48 8d 85 e0 fd ff ff 	lea    -0x220(%rbp),%rax
    558f:	48 89 c7             	mov    %rax,%rdi
    5592:	e8 39 df ff ff       	callq  34d0 <_ZNSt14basic_ifstreamIcSt11char_traitsIcEE5closeEv@plt>
    5597:	eb 13                	jmp    55ac <_Z24construct_correct_vectorNSt7__cxx1112basic_stringIcSt11char_traitsIcESaIcEEE+0x168>
    5599:	48 8d 35 98 ec 02 00 	lea    0x2ec98(%rip),%rsi        # 34238 <_ZL17HIGH_MARGIN_SCALE+0x38>
    55a0:	48 8d 3d 99 0a 05 00 	lea    0x50a99(%rip),%rdi        # 56040 <_ZSt4cout@@GLIBCXX_3.4>
    55a7:	e8 b4 e0 ff ff       	callq  3660 <_ZStlsISt11char_traitsIcEERSt13basic_ostreamIcT_ES5_PKc@plt>
    55ac:	48 8d 85 e0 fd ff ff 	lea    -0x220(%rbp),%rax
    55b3:	48 89 c7             	mov    %rax,%rdi
    55b6:	e8 35 df ff ff       	callq  34f0 <_ZNSt14basic_ifstreamIcSt11char_traitsIcEED1Ev@plt>
    55bb:	48 8d 85 c0 fd ff ff 	lea    -0x240(%rbp),%rax
    55c2:	48 89 c7             	mov    %rax,%rdi
    55c5:	e8 e6 df ff ff       	callq  35b0 <_ZNSt7__cxx1112basic_stringIcSt11char_traitsIcESaIcEED1Ev@plt>
    55ca:	48 8d 85 a0 fd ff ff 	lea    -0x260(%rbp),%rax
    55d1:	48 89 c7             	mov    %rax,%rdi
    55d4:	e8 d7 df ff ff       	callq  35b0 <_ZNSt7__cxx1112basic_stringIcSt11char_traitsIcESaIcEED1Ev@plt>
    55d9:	90                   	nop
    55da:	48 8b 45 e8          	mov    -0x18(%rbp),%rax
    55de:	64 48 33 04 25 28 00 	xor    %fs:0x28,%rax
    55e5:	00 00 
    55e7:	74 4f                	je     5638 <_Z24construct_correct_vectorNSt7__cxx1112basic_stringIcSt11char_traitsIcESaIcEEE+0x1f4>
    55e9:	eb 48                	jmp    5633 <_Z24construct_correct_vectorNSt7__cxx1112basic_stringIcSt11char_traitsIcESaIcEEE+0x1ef>
    55eb:	f3 0f 1e fa          	endbr64 
    55ef:	48 89 c3             	mov    %rax,%rbx
    55f2:	48 8d 85 e0 fd ff ff 	lea    -0x220(%rbp),%rax
    55f9:	48 89 c7             	mov    %rax,%rdi
    55fc:	e8 ef de ff ff       	callq  34f0 <_ZNSt14basic_ifstreamIcSt11char_traitsIcEED1Ev@plt>
    5601:	eb 07                	jmp    560a <_Z24construct_correct_vectorNSt7__cxx1112basic_stringIcSt11char_traitsIcESaIcEEE+0x1c6>
    5603:	f3 0f 1e fa          	endbr64 
    5607:	48 89 c3             	mov    %rax,%rbx
    560a:	48 8d 85 c0 fd ff ff 	lea    -0x240(%rbp),%rax
    5611:	48 89 c7             	mov    %rax,%rdi
    5614:	e8 97 df ff ff       	callq  35b0 <_ZNSt7__cxx1112basic_stringIcSt11char_traitsIcESaIcEED1Ev@plt>
    5619:	48 8d 85 a0 fd ff ff 	lea    -0x260(%rbp),%rax
    5620:	48 89 c7             	mov    %rax,%rdi
    5623:	e8 88 df ff ff       	callq  35b0 <_ZNSt7__cxx1112basic_stringIcSt11char_traitsIcESaIcEED1Ev@plt>
    5628:	48 89 d8             	mov    %rbx,%rax
    562b:	48 89 c7             	mov    %rax,%rdi
    562e:	e8 0d e2 ff ff       	callq  3840 <_Unwind_Resume@plt>
    5633:	e8 78 e0 ff ff       	callq  36b0 <__stack_chk_fail@plt>
    5638:	48 81 c4 78 02 00 00 	add    $0x278,%rsp
    563f:	5b                   	pop    %rbx
    5640:	5d                   	pop    %rbp
    5641:	c3                   	retq   

0000000000005642 <_Z21construct_pred_vectorSt6vectorIiSaIiEES1_>:
    5642:	f3 0f 1e fa          	endbr64 
    5646:	55                   	push   %rbp
    5647:	48 89 e5             	mov    %rsp,%rbp
    564a:	53                   	push   %rbx
    564b:	48 83 ec 38          	sub    $0x38,%rsp
    564f:	48 89 7d c8          	mov    %rdi,-0x38(%rbp)
    5653:	48 89 75 c0          	mov    %rsi,-0x40(%rbp)
    5657:	64 48 8b 04 25 28 00 	mov    %fs:0x28,%rax
    565e:	00 00 
    5660:	48 89 45 e8          	mov    %rax,-0x18(%rbp)
    5664:	31 c0                	xor    %eax,%eax
    5666:	c7 45 e0 00 00 00 00 	movl   $0x0,-0x20(%rbp)
    566d:	8b 45 e0             	mov    -0x20(%rbp),%eax
    5670:	48 63 d8             	movslq %eax,%rbx
    5673:	48 8b 45 c0          	mov    -0x40(%rbp),%rax
    5677:	48 89 c7             	mov    %rax,%rdi
    567a:	e8 b1 2b 00 00       	callq  8230 <_ZNKSt6vectorIiSaIiEE4sizeEv>
    567f:	48 39 c3             	cmp    %rax,%rbx
    5682:	0f 92 c0             	setb   %al
    5685:	84 c0                	test   %al,%al
    5687:	0f 84 85 00 00 00    	je     5712 <_Z21construct_pred_vectorSt6vectorIiSaIiEES1_+0xd0>
    568d:	c7 45 e4 00 00 00 00 	movl   $0x0,-0x1c(%rbp)
    5694:	8b 45 e4             	mov    -0x1c(%rbp),%eax
    5697:	48 63 d8             	movslq %eax,%rbx
    569a:	48 8b 45 c8          	mov    -0x38(%rbp),%rax
    569e:	48 89 c7             	mov    %rax,%rdi
    56a1:	e8 8a 2b 00 00       	callq  8230 <_ZNKSt6vectorIiSaIiEE4sizeEv>
    56a6:	48 39 c3             	cmp    %rax,%rbx
    56a9:	0f 92 c0             	setb   %al
    56ac:	84 c0                	test   %al,%al
    56ae:	74 59                	je     5709 <_Z21construct_pred_vectorSt6vectorIiSaIiEES1_+0xc7>
    56b0:	8b 45 e0             	mov    -0x20(%rbp),%eax
    56b3:	48 63 d0             	movslq %eax,%rdx
    56b6:	48 8b 45 c0          	mov    -0x40(%rbp),%rax
    56ba:	48 89 d6             	mov    %rdx,%rsi
    56bd:	48 89 c7             	mov    %rax,%rdi
    56c0:	e8 93 2b 00 00       	callq  8258 <_ZNSt6vectorIiSaIiEE2atEm>
    56c5:	8b 18                	mov    (%rax),%ebx
    56c7:	8b 45 e4             	mov    -0x1c(%rbp),%eax
    56ca:	48 63 d0             	movslq %eax,%rdx
    56cd:	48 8b 45 c8          	mov    -0x38(%rbp),%rax
    56d1:	48 89 d6             	mov    %rdx,%rsi
    56d4:	48 89 c7             	mov    %rax,%rdi
    56d7:	e8 7c 2b 00 00       	callq  8258 <_ZNSt6vectorIiSaIiEE2atEm>
    56dc:	8b 00                	mov    (%rax),%eax
    56de:	39 c3                	cmp    %eax,%ebx
    56e0:	0f 94 c0             	sete   %al
    56e3:	84 c0                	test   %al,%al
    56e5:	74 1c                	je     5703 <_Z21construct_pred_vectorSt6vectorIiSaIiEES1_+0xc1>
    56e7:	8b 45 e4             	mov    -0x1c(%rbp),%eax
    56ea:	83 c0 01             	add    $0x1,%eax
    56ed:	89 45 dc             	mov    %eax,-0x24(%rbp)
    56f0:	48 8d 45 dc          	lea    -0x24(%rbp),%rax
    56f4:	48 89 c6             	mov    %rax,%rsi
    56f7:	48 8d 3d 02 0b 05 00 	lea    0x50b02(%rip),%rdi        # 56200 <predicted_rank>
    56fe:	e8 4d 23 00 00       	callq  7a50 <_ZNSt6vectorIiSaIiEE9push_backEOi>
    5703:	83 45 e4 01          	addl   $0x1,-0x1c(%rbp)
    5707:	eb 8b                	jmp    5694 <_Z21construct_pred_vectorSt6vectorIiSaIiEES1_+0x52>
    5709:	83 45 e0 01          	addl   $0x1,-0x20(%rbp)
    570d:	e9 5b ff ff ff       	jmpq   566d <_Z21construct_pred_vectorSt6vectorIiSaIiEES1_+0x2b>
    5712:	90                   	nop
    5713:	48 8b 45 e8          	mov    -0x18(%rbp),%rax
    5717:	64 48 33 04 25 28 00 	xor    %fs:0x28,%rax
    571e:	00 00 
    5720:	74 05                	je     5727 <_Z21construct_pred_vectorSt6vectorIiSaIiEES1_+0xe5>
    5722:	e8 89 df ff ff       	callq  36b0 <__stack_chk_fail@plt>
    5727:	48 83 c4 38          	add    $0x38,%rsp
    572b:	5b                   	pop    %rbx
    572c:	5d                   	pop    %rbp
    572d:	c3                   	retq   

000000000000572e <_Z10getTeamMapv>:
    572e:	f3 0f 1e fa          	endbr64 
    5732:	55                   	push   %rbp
    5733:	48 89 e5             	mov    %rsp,%rbp
    5736:	48 83 ec 10          	sub    $0x10,%rsp
    573a:	48 89 7d f8          	mov    %rdi,-0x8(%rbp)
    573e:	48 8b 45 f8          	mov    -0x8(%rbp),%rax
    5742:	48 8d 35 f7 0a 05 00 	lea    0x50af7(%rip),%rsi        # 56240 <teamMap>
    5749:	48 89 c7             	mov    %rax,%rdi
    574c:	e8 17 17 00 00       	callq  6e68 <_ZNSt3mapIiP4TeamSt4lessIiESaISt4pairIKiS1_EEEC1ERKS8_>
    5751:	48 8b 45 f8          	mov    -0x8(%rbp),%rax
    5755:	c9                   	leaveq 
    5756:	c3                   	retq   

0000000000005757 <_Z11getNumTeamsv>:
    5757:	f3 0f 1e fa          	endbr64 
    575b:	55                   	push   %rbp
    575c:	48 89 e5             	mov    %rsp,%rbp
    575f:	8b 05 67 0b 05 00    	mov    0x50b67(%rip),%eax        # 562cc <numTeams>
    5765:	5d                   	pop    %rbp
    5766:	c3                   	retq   

0000000000005767 <_Z17getNumGamesPlayedv>:
    5767:	f3 0f 1e fa          	endbr64 
    576b:	55                   	push   %rbp
    576c:	48 89 e5             	mov    %rsp,%rbp
    576f:	8b 05 53 0b 05 00    	mov    0x50b53(%rip),%eax        # 562c8 <numGamesPlayed>
    5775:	5d                   	pop    %rbp
    5776:	c3                   	retq   

0000000000005777 <_Z13getGameMatrixv>:
    5777:	f3 0f 1e fa          	endbr64 
    577b:	55                   	push   %rbp
    577c:	48 89 e5             	mov    %rsp,%rbp
    577f:	48 83 ec 10          	sub    $0x10,%rsp
    5783:	48 89 7d f8          	mov    %rdi,-0x8(%rbp)
    5787:	48 8b 45 f8          	mov    -0x8(%rbp),%rax
    578b:	48 8d 35 de 0a 05 00 	lea    0x50ade(%rip),%rsi        # 56270 <gameMatrix>
    5792:	48 89 c7             	mov    %rax,%rdi
    5795:	e8 86 2b 00 00       	callq  8320 <_ZN5Eigen6MatrixIdLin1ELin1ELi0ELin1ELin1EEC1ERKS1_>
    579a:	48 8b 45 f8          	mov    -0x8(%rbp),%rax
    579e:	c9                   	leaveq 
    579f:	c3                   	retq   

00000000000057a0 <_Z17getTeamCollectionv>:
    57a0:	f3 0f 1e fa          	endbr64 
    57a4:	55                   	push   %rbp
    57a5:	48 89 e5             	mov    %rsp,%rbp
    57a8:	48 83 ec 10          	sub    $0x10,%rsp
    57ac:	48 89 7d f8          	mov    %rdi,-0x8(%rbp)
    57b0:	48 8b 45 f8          	mov    -0x8(%rbp),%rax
    57b4:	48 8d 35 c5 09 05 00 	lea    0x509c5(%rip),%rsi        # 56180 <teamCollection>
    57bb:	48 89 c7             	mov    %rax,%rdi
    57be:	e8 87 2b 00 00       	callq  834a <_ZNSt6vectorIP4TeamSaIS1_EEC1ERKS3_>
    57c3:	48 8b 45 f8          	mov    -0x8(%rbp),%rax
    57c7:	c9                   	leaveq 
    57c8:	c3                   	retq   

00000000000057c9 <_Z9computeSESt6vectorIiSaIiEES1_>:
    57c9:	f3 0f 1e fa          	endbr64 
    57cd:	55                   	push   %rbp
    57ce:	48 89 e5             	mov    %rsp,%rbp
    57d1:	53                   	push   %rbx
    57d2:	48 83 ec 38          	sub    $0x38,%rsp
    57d6:	48 89 7d c8          	mov    %rdi,-0x38(%rbp)
    57da:	48 89 75 c0          	mov    %rsi,-0x40(%rbp)
    57de:	66 0f ef c0          	pxor   %xmm0,%xmm0
    57e2:	f2 0f 11 45 d8       	movsd  %xmm0,-0x28(%rbp)
    57e7:	48 8b 45 c8          	mov    -0x38(%rbp),%rax
    57eb:	48 89 c7             	mov    %rax,%rdi
    57ee:	e8 3d 2a 00 00       	callq  8230 <_ZNKSt6vectorIiSaIiEE4sizeEv>
    57f3:	89 45 d4             	mov    %eax,-0x2c(%rbp)
    57f6:	c7 45 d0 00 00 00 00 	movl   $0x0,-0x30(%rbp)
    57fd:	8b 45 d0             	mov    -0x30(%rbp),%eax
    5800:	3b 45 d4             	cmp    -0x2c(%rbp),%eax
    5803:	7d 62                	jge    5867 <_Z9computeSESt6vectorIiSaIiEES1_+0x9e>
    5805:	8b 45 d0             	mov    -0x30(%rbp),%eax
    5808:	48 63 d0             	movslq %eax,%rdx
    580b:	48 8b 45 c0          	mov    -0x40(%rbp),%rax
    580f:	48 89 d6             	mov    %rdx,%rsi
    5812:	48 89 c7             	mov    %rax,%rdi
    5815:	e8 3e 2a 00 00       	callq  8258 <_ZNSt6vectorIiSaIiEE2atEm>
    581a:	8b 18                	mov    (%rax),%ebx
    581c:	8b 45 d0             	mov    -0x30(%rbp),%eax
    581f:	48 63 d0             	movslq %eax,%rdx
    5822:	48 8b 45 c8          	mov    -0x38(%rbp),%rax
    5826:	48 89 d6             	mov    %rdx,%rsi
    5829:	48 89 c7             	mov    %rax,%rdi
    582c:	e8 27 2a 00 00       	callq  8258 <_ZNSt6vectorIiSaIiEE2atEm>
    5831:	8b 00                	mov    (%rax),%eax
    5833:	29 c3                	sub    %eax,%ebx
    5835:	89 d8                	mov    %ebx,%eax
    5837:	f2 0f 2a c0          	cvtsi2sd %eax,%xmm0
    583b:	f2 0f 11 45 e0       	movsd  %xmm0,-0x20(%rbp)
    5840:	48 8b 45 e0          	mov    -0x20(%rbp),%rax
    5844:	bf 02 00 00 00       	mov    $0x2,%edi
    5849:	66 48 0f 6e c0       	movq   %rax,%xmm0
    584e:	e8 16 2c 00 00       	callq  8469 <_ZSt3powIdiEN9__gnu_cxx11__promote_2IT_T0_NS0_9__promoteIS2_XsrSt12__is_integerIS2_E7__valueEE6__typeENS4_IS3_XsrS5_IS3_E7__valueEE6__typeEE6__typeES2_S3_>
    5853:	f2 0f 10 4d d8       	movsd  -0x28(%rbp),%xmm1
    5858:	f2 0f 58 c1          	addsd  %xmm1,%xmm0
    585c:	f2 0f 11 45 d8       	movsd  %xmm0,-0x28(%rbp)
    5861:	83 45 d0 01          	addl   $0x1,-0x30(%rbp)
    5865:	eb 96                	jmp    57fd <_Z9computeSESt6vectorIiSaIiEES1_+0x34>
    5867:	f2 0f 2a 4d d4       	cvtsi2sdl -0x2c(%rbp),%xmm1
    586c:	f2 0f 10 45 d8       	movsd  -0x28(%rbp),%xmm0
    5871:	f2 0f 5e c1          	divsd  %xmm1,%xmm0
    5875:	f2 0f 10 0d 43 90 03 	movsd  0x39043(%rip),%xmm1        # 3e8c0 <_ZL17HIGH_MARGIN_SCALE+0xa6c0>
    587c:	00 
    587d:	e8 ae df ff ff       	callq  3830 <pow@plt>
    5882:	66 48 0f 7e c0       	movq   %xmm0,%rax
    5887:	48 89 45 e8          	mov    %rax,-0x18(%rbp)
    588b:	f2 0f 10 45 e8       	movsd  -0x18(%rbp),%xmm0
    5890:	48 83 c4 38          	add    $0x38,%rsp
    5894:	5b                   	pop    %rbx
    5895:	5d                   	pop    %rbp
    5896:	c3                   	retq   

0000000000005897 <_Z41__static_initialization_and_destruction_0ii>:
    5897:	f3 0f 1e fa          	endbr64 
    589b:	55                   	push   %rbp
    589c:	48 89 e5             	mov    %rsp,%rbp
    589f:	48 83 ec 10          	sub    $0x10,%rsp
    58a3:	89 7d fc             	mov    %edi,-0x4(%rbp)
    58a6:	89 75 f8             	mov    %esi,-0x8(%rbp)
    58a9:	83 7d fc 01          	cmpl   $0x1,-0x4(%rbp)
    58ad:	0f 85 fe 01 00 00    	jne    5ab1 <_Z41__static_initialization_and_destruction_0ii+0x21a>
    58b3:	81 7d f8 ff ff 00 00 	cmpl   $0xffff,-0x8(%rbp)
    58ba:	0f 85 f1 01 00 00    	jne    5ab1 <_Z41__static_initialization_and_destruction_0ii+0x21a>
    58c0:	48 8d 3d 19 0a 05 00 	lea    0x50a19(%rip),%rdi        # 562e0 <_ZStL8__ioinit>
    58c7:	e8 a4 de ff ff       	callq  3770 <_ZNSt8ios_base4InitC1Ev@plt>
    58cc:	48 8d 15 35 07 05 00 	lea    0x50735(%rip),%rdx        # 56008 <__dso_handle>
    58d3:	48 8d 35 06 0a 05 00 	lea    0x50a06(%rip),%rsi        # 562e0 <_ZStL8__ioinit>
    58da:	48 8b 05 17 07 05 00 	mov    0x50717(%rip),%rax        # 55ff8 <_ZNSt8ios_base4InitD1Ev@GLIBCXX_3.4>
    58e1:	48 89 c7             	mov    %rax,%rdi
    58e4:	e8 47 dd ff ff       	callq  3630 <__cxa_atexit@plt>
    58e9:	48 8d 3d 70 08 05 00 	lea    0x50870(%rip),%rdi        # 56160 <_Z6labelsB5cxx11>
    58f0:	e8 a3 12 00 00       	callq  6b98 <_ZNSt6vectorINSt7__cxx1112basic_stringIcSt11char_traitsIcESaIcEEESaIS5_EEC1Ev>
    58f5:	48 8d 15 0c 07 05 00 	lea    0x5070c(%rip),%rdx        # 56008 <__dso_handle>
    58fc:	48 8d 35 5d 08 05 00 	lea    0x5085d(%rip),%rsi        # 56160 <_Z6labelsB5cxx11>
    5903:	48 8d 3d 5a c9 02 00 	lea    0x2c95a(%rip),%rdi        # 32264 <_ZNSt6vectorINSt7__cxx1112basic_stringIcSt11char_traitsIcESaIcEEESaIS5_EED1Ev>
    590a:	e8 21 dd ff ff       	callq  3630 <__cxa_atexit@plt>
    590f:	48 8d 3d 6a 08 05 00 	lea    0x5086a(%rip),%rdi        # 56180 <teamCollection>
    5916:	e8 dd 12 00 00       	callq  6bf8 <_ZNSt6vectorIP4TeamSaIS1_EEC1Ev>
    591b:	48 8d 15 e6 06 05 00 	lea    0x506e6(%rip),%rdx        # 56008 <__dso_handle>
    5922:	48 8d 35 57 08 05 00 	lea    0x50857(%rip),%rsi        # 56180 <teamCollection>
    5929:	48 8d 3d a6 25 00 00 	lea    0x25a6(%rip),%rdi        # 7ed6 <_ZNSt6vectorIP4TeamSaIS1_EED1Ev>
    5930:	e8 fb dc ff ff       	callq  3630 <__cxa_atexit@plt>
    5935:	48 8d 3d 64 08 05 00 	lea    0x50864(%rip),%rdi        # 561a0 <resultVector>
    593c:	e8 17 13 00 00       	callq  6c58 <_ZNSt6vectorI4TeamSaIS0_EEC1Ev>
    5941:	48 8d 15 c0 06 05 00 	lea    0x506c0(%rip),%rdx        # 56008 <__dso_handle>
    5948:	48 8d 35 51 08 05 00 	lea    0x50851(%rip),%rsi        # 561a0 <resultVector>
    594f:	48 8d 3d 56 c9 02 00 	lea    0x2c956(%rip),%rdi        # 322ac <_ZNSt6vectorI4TeamSaIS0_EED1Ev>
    5956:	e8 d5 dc ff ff       	callq  3630 <__cxa_atexit@plt>
    595b:	48 8d 3d 5e 08 05 00 	lea    0x5085e(%rip),%rdi        # 561c0 <predicted_ids>
    5962:	e8 51 13 00 00       	callq  6cb8 <_ZNSt6vectorIiSaIiEEC1Ev>
    5967:	48 8d 15 9a 06 05 00 	lea    0x5069a(%rip),%rdx        # 56008 <__dso_handle>
    596e:	48 8d 35 4b 08 05 00 	lea    0x5084b(%rip),%rsi        # 561c0 <predicted_ids>
    5975:	48 8d 3d 2a 22 00 00 	lea    0x222a(%rip),%rdi        # 7ba6 <_ZNSt6vectorIiSaIiEED1Ev>
    597c:	e8 af dc ff ff       	callq  3630 <__cxa_atexit@plt>
    5981:	48 8d 3d 58 08 05 00 	lea    0x50858(%rip),%rdi        # 561e0 <correct_ids>
    5988:	e8 2b 13 00 00       	callq  6cb8 <_ZNSt6vectorIiSaIiEEC1Ev>
    598d:	48 8d 15 74 06 05 00 	lea    0x50674(%rip),%rdx        # 56008 <__dso_handle>
    5994:	48 8d 35 45 08 05 00 	lea    0x50845(%rip),%rsi        # 561e0 <correct_ids>
    599b:	48 8d 3d 04 22 00 00 	lea    0x2204(%rip),%rdi        # 7ba6 <_ZNSt6vectorIiSaIiEED1Ev>
    59a2:	e8 89 dc ff ff       	callq  3630 <__cxa_atexit@plt>
    59a7:	48 8d 3d 52 08 05 00 	lea    0x50852(%rip),%rdi        # 56200 <predicted_rank>
    59ae:	e8 05 13 00 00       	callq  6cb8 <_ZNSt6vectorIiSaIiEEC1Ev>
    59b3:	48 8d 15 4e 06 05 00 	lea    0x5064e(%rip),%rdx        # 56008 <__dso_handle>
    59ba:	48 8d 35 3f 08 05 00 	lea    0x5083f(%rip),%rsi        # 56200 <predicted_rank>
    59c1:	48 8d 3d de 21 00 00 	lea    0x21de(%rip),%rdi        # 7ba6 <_ZNSt6vectorIiSaIiEED1Ev>
    59c8:	e8 63 dc ff ff       	callq  3630 <__cxa_atexit@plt>
    59cd:	48 8d 3d 4c 08 05 00 	lea    0x5084c(%rip),%rdi        # 56220 <correct_rank>
    59d4:	e8 df 12 00 00       	callq  6cb8 <_ZNSt6vectorIiSaIiEEC1Ev>
    59d9:	48 8d 15 28 06 05 00 	lea    0x50628(%rip),%rdx        # 56008 <__dso_handle>
    59e0:	48 8d 35 39 08 05 00 	lea    0x50839(%rip),%rsi        # 56220 <correct_rank>
    59e7:	48 8d 3d b8 21 00 00 	lea    0x21b8(%rip),%rdi        # 7ba6 <_ZNSt6vectorIiSaIiEED1Ev>
    59ee:	e8 3d dc ff ff       	callq  3630 <__cxa_atexit@plt>
    59f3:	48 8d 3d 46 08 05 00 	lea    0x50846(%rip),%rdi        # 56240 <teamMap>
    59fa:	e8 19 13 00 00       	callq  6d18 <_ZNSt3mapIiP4TeamSt4lessIiESaISt4pairIKiS1_EEEC1Ev>
    59ff:	48 8d 15 02 06 05 00 	lea    0x50602(%rip),%rdx        # 56008 <__dso_handle>
    5a06:	48 8d 35 33 08 05 00 	lea    0x50833(%rip),%rsi        # 56240 <teamMap>
    5a0d:	48 8d 3d 7e 14 00 00 	lea    0x147e(%rip),%rdi        # 6e92 <_ZNSt3mapIiP4TeamSt4lessIiESaISt4pairIKiS1_EEED1Ev>
    5a14:	e8 17 dc ff ff       	callq  3630 <__cxa_atexit@plt>
    5a19:	48 8d 3d 50 08 05 00 	lea    0x50850(%rip),%rdi        # 56270 <gameMatrix>
    5a20:	e8 7d 1a 00 00       	callq  74a2 <_ZN5Eigen6MatrixIdLin1ELin1ELi0ELin1ELin1EEC1Ev>
    5a25:	48 8d 15 dc 05 05 00 	lea    0x505dc(%rip),%rdx        # 56008 <__dso_handle>
    5a2c:	48 8d 35 3d 08 05 00 	lea    0x5083d(%rip),%rsi        # 56270 <gameMatrix>
    5a33:	48 8d 3d 1e 13 00 00 	lea    0x131e(%rip),%rdi        # 6d58 <_ZN5Eigen6MatrixIdLin1ELin1ELi0ELin1ELin1EED1Ev>
    5a3a:	e8 f1 db ff ff       	callq  3630 <__cxa_atexit@plt>
    5a3f:	48 8d 3d 4a 08 05 00 	lea    0x5084a(%rip),%rdi        # 56290 <scores>
    5a46:	e8 9b 1a 00 00       	callq  74e6 <_ZN5Eigen6MatrixIdLin1ELi1ELi0ELin1ELi1EEC1Ev>
    5a4b:	48 8d 15 b6 05 05 00 	lea    0x505b6(%rip),%rdx        # 56008 <__dso_handle>
    5a52:	48 8d 35 37 08 05 00 	lea    0x50837(%rip),%rsi        # 56290 <scores>
    5a59:	48 8d 3d e4 c7 02 00 	lea    0x2c7e4(%rip),%rdi        # 32244 <_ZN5Eigen6MatrixIdLin1ELi1ELi0ELin1ELi1EED1Ev>
    5a60:	e8 cb db ff ff       	callq  3630 <__cxa_atexit@plt>
    5a65:	48 8d 3d 34 08 05 00 	lea    0x50834(%rip),%rdi        # 562a0 <solutionVector>
    5a6c:	e8 75 1a 00 00       	callq  74e6 <_ZN5Eigen6MatrixIdLin1ELi1ELi0ELin1ELi1EEC1Ev>
    5a71:	48 8d 15 90 05 05 00 	lea    0x50590(%rip),%rdx        # 56008 <__dso_handle>
    5a78:	48 8d 35 21 08 05 00 	lea    0x50821(%rip),%rsi        # 562a0 <solutionVector>
    5a7f:	48 8d 3d be c7 02 00 	lea    0x2c7be(%rip),%rdi        # 32244 <_ZN5Eigen6MatrixIdLin1ELi1ELi0ELin1ELi1EED1Ev>
    5a86:	e8 a5 db ff ff       	callq  3630 <__cxa_atexit@plt>
    5a8b:	48 8d 3d 1e 08 05 00 	lea    0x5081e(%rip),%rdi        # 562b0 <correct>
    5a92:	e8 21 12 00 00       	callq  6cb8 <_ZNSt6vectorIiSaIiEEC1Ev>
    5a97:	48 8d 15 6a 05 05 00 	lea    0x5056a(%rip),%rdx        # 56008 <__dso_handle>
    5a9e:	48 8d 35 0b 08 05 00 	lea    0x5080b(%rip),%rsi        # 562b0 <correct>
    5aa5:	48 8d 3d fa 20 00 00 	lea    0x20fa(%rip),%rdi        # 7ba6 <_ZNSt6vectorIiSaIiEED1Ev>
    5aac:	e8 7f db ff ff       	callq  3630 <__cxa_atexit@plt>
    5ab1:	90                   	nop
    5ab2:	c9                   	leaveq 
    5ab3:	c3                   	retq   

0000000000005ab4 <_GLOBAL__sub_I__Z6labelsB5cxx11>:
    5ab4:	f3 0f 1e fa          	endbr64 
    5ab8:	55                   	push   %rbp
    5ab9:	48 89 e5             	mov    %rsp,%rbp
    5abc:	be ff ff 00 00       	mov    $0xffff,%esi
    5ac1:	bf 01 00 00 00       	mov    $0x1,%edi
    5ac6:	e8 cc fd ff ff       	callq  5897 <_Z41__static_initialization_and_destruction_0ii>
    5acb:	5d                   	pop    %rbp
    5acc:	c3                   	retq   
    5acd:	90                   	nop

0000000000005ace <_ZNSt9exceptionC1Ev>:
    5ace:	f3 0f 1e fa          	endbr64 
    5ad2:	55                   	push   %rbp
    5ad3:	48 89 e5             	mov    %rsp,%rbp
    5ad6:	48 89 7d f8          	mov    %rdi,-0x8(%rbp)
    5ada:	48 8d 15 37 00 05 00 	lea    0x50037(%rip),%rdx        # 55b18 <_ZTVSt9exception@@GLIBCXX_3.4+0x10>
    5ae1:	48 8b 45 f8          	mov    -0x8(%rbp),%rax
    5ae5:	48 89 10             	mov    %rdx,(%rax)
    5ae8:	90                   	nop
    5ae9:	5d                   	pop    %rbp
    5aea:	c3                   	retq   
    5aeb:	90                   	nop

0000000000005aec <_ZNSt9bad_allocC1Ev>:
    5aec:	f3 0f 1e fa          	endbr64 
    5af0:	55                   	push   %rbp
    5af1:	48 89 e5             	mov    %rsp,%rbp
    5af4:	48 83 ec 10          	sub    $0x10,%rsp
    5af8:	48 89 7d f8          	mov    %rdi,-0x8(%rbp)
    5afc:	48 8b 45 f8          	mov    -0x8(%rbp),%rax
    5b00:	48 89 c7             	mov    %rax,%rdi
    5b03:	e8 c6 ff ff ff       	callq  5ace <_ZNSt9exceptionC1Ev>
    5b08:	48 8d 15 e1 ff 04 00 	lea    0x4ffe1(%rip),%rdx        # 55af0 <_ZTVSt9bad_alloc@@GLIBCXX_3.4+0x10>
    5b0f:	48 8b 45 f8          	mov    -0x8(%rbp),%rax
    5b13:	48 89 10             	mov    %rdx,(%rax)
    5b16:	90                   	nop
    5b17:	c9                   	leaveq 
    5b18:	c3                   	retq   

0000000000005b19 <_ZnwmPv>:
    5b19:	f3 0f 1e fa          	endbr64 
    5b1d:	55                   	push   %rbp
    5b1e:	48 89 e5             	mov    %rsp,%rbp
    5b21:	48 89 7d f8          	mov    %rdi,-0x8(%rbp)
    5b25:	48 89 75 f0          	mov    %rsi,-0x10(%rbp)
    5b29:	48 8b 45 f0          	mov    -0x10(%rbp),%rax
    5b2d:	5d                   	pop    %rbp
    5b2e:	c3                   	retq   

0000000000005b2f <_ZdlPvS_>:
    5b2f:	f3 0f 1e fa          	endbr64 
    5b33:	55                   	push   %rbp
    5b34:	48 89 e5             	mov    %rsp,%rbp
    5b37:	48 89 7d f8          	mov    %rdi,-0x8(%rbp)
    5b3b:	48 89 75 f0          	mov    %rsi,-0x10(%rbp)
    5b3f:	90                   	nop
    5b40:	5d                   	pop    %rbp
    5b41:	c3                   	retq   

0000000000005b42 <_ZN9__gnu_cxx5__ops16__iter_less_iterEv>:
    5b42:	f3 0f 1e fa          	endbr64 
    5b46:	55                   	push   %rbp
    5b47:	48 89 e5             	mov    %rsp,%rbp
    5b4a:	5d                   	pop    %rbp
    5b4b:	c3                   	retq   

0000000000005b4c <_ZN9__gnu_cxx5__ops14_Iter_less_valC1ENS0_15_Iter_less_iterE>:
    5b4c:	f3 0f 1e fa          	endbr64 
    5b50:	55                   	push   %rbp
    5b51:	48 89 e5             	mov    %rsp,%rbp
    5b54:	48 89 7d f8          	mov    %rdi,-0x8(%rbp)
    5b58:	90                   	nop
    5b59:	5d                   	pop    %rbp
    5b5a:	c3                   	retq   

0000000000005b5b <_ZN9__gnu_cxx5__ops15__val_comp_iterENS0_15_Iter_less_iterE>:
    5b5b:	f3 0f 1e fa          	endbr64 
    5b5f:	55                   	push   %rbp
    5b60:	48 89 e5             	mov    %rsp,%rbp
    5b63:	5d                   	pop    %rbp
    5b64:	c3                   	retq   

0000000000005b65 <_ZSt4__lgl>:
    5b65:	f3 0f 1e fa          	endbr64 
    5b69:	55                   	push   %rbp
    5b6a:	48 89 e5             	mov    %rsp,%rbp
    5b6d:	48 89 7d f8          	mov    %rdi,-0x8(%rbp)
    5b71:	48 8b 45 f8          	mov    -0x8(%rbp),%rax
    5b75:	48 0f bd c0          	bsr    %rax,%rax
    5b79:	48 83 f0 3f          	xor    $0x3f,%rax
    5b7d:	ba 3f 00 00 00       	mov    $0x3f,%edx
    5b82:	29 c2                	sub    %eax,%edx
    5b84:	89 d0                	mov    %edx,%eax
    5b86:	48 98                	cltq   
    5b88:	5d                   	pop    %rbp
    5b89:	c3                   	retq   

0000000000005b8a <_ZSt3absd>:
    5b8a:	f3 0f 1e fa          	endbr64 
    5b8e:	55                   	push   %rbp
    5b8f:	48 89 e5             	mov    %rsp,%rbp
    5b92:	f2 0f 11 45 f8       	movsd  %xmm0,-0x8(%rbp)
    5b97:	f2 0f 10 45 f8       	movsd  -0x8(%rbp),%xmm0
    5b9c:	f3 0f 7e 0d dc 8c 03 	movq   0x38cdc(%rip),%xmm1        # 3e880 <_ZL17HIGH_MARGIN_SCALE+0xa680>
    5ba3:	00 
    5ba4:	66 0f 54 c1          	andpd  %xmm1,%xmm0
    5ba8:	5d                   	pop    %rbp
    5ba9:	c3                   	retq   

0000000000005baa <_ZNSt7__cxx114stoiERKNS_12basic_stringIcSt11char_traitsIcESaIcEEEPmi>:
    5baa:	f3 0f 1e fa          	endbr64 
    5bae:	55                   	push   %rbp
    5baf:	48 89 e5             	mov    %rsp,%rbp
    5bb2:	48 83 ec 20          	sub    $0x20,%rsp
    5bb6:	48 89 7d f8          	mov    %rdi,-0x8(%rbp)
    5bba:	48 89 75 f0          	mov    %rsi,-0x10(%rbp)
    5bbe:	89 55 ec             	mov    %edx,-0x14(%rbp)
    5bc1:	48 8b 45 f8          	mov    -0x8(%rbp),%rax
    5bc5:	48 89 c7             	mov    %rax,%rdi
    5bc8:	e8 73 d9 ff ff       	callq  3540 <_ZNKSt7__cxx1112basic_stringIcSt11char_traitsIcESaIcEE5c_strEv@plt>
    5bcd:	48 89 c2             	mov    %rax,%rdx
    5bd0:	8b 4d ec             	mov    -0x14(%rbp),%ecx
    5bd3:	48 8b 45 f0          	mov    -0x10(%rbp),%rax
    5bd7:	41 89 c8             	mov    %ecx,%r8d
    5bda:	48 89 c1             	mov    %rax,%rcx
    5bdd:	48 8d 35 2d e4 02 00 	lea    0x2e42d(%rip),%rsi        # 34011 <_ZStL19piecewise_construct+0x1>
    5be4:	48 8b 05 e5 03 05 00 	mov    0x503e5(%rip),%rax        # 55fd0 <strtol@GLIBC_2.2.5>
    5beb:	48 89 c7             	mov    %rax,%rdi
    5bee:	e8 4b 13 00 00       	callq  6f3e <_ZN9__gnu_cxx6__stoaIlicJiEEET0_PFT_PKT1_PPS3_DpT2_EPKcS5_PmS9_>
    5bf3:	c9                   	leaveq 
    5bf4:	c3                   	retq   

0000000000005bf5 <_ZStorSt13_Ios_OpenmodeS_>:
    5bf5:	f3 0f 1e fa          	endbr64 
    5bf9:	55                   	push   %rbp
    5bfa:	48 89 e5             	mov    %rsp,%rbp
    5bfd:	89 7d fc             	mov    %edi,-0x4(%rbp)
    5c00:	89 75 f8             	mov    %esi,-0x8(%rbp)
    5c03:	8b 45 fc             	mov    -0x4(%rbp),%eax
    5c06:	0b 45 f8             	or     -0x8(%rbp),%eax
    5c09:	5d                   	pop    %rbp
    5c0a:	c3                   	retq   

0000000000005c0b <_ZNSt14numeric_limitsIiE3maxEv>:
    5c0b:	f3 0f 1e fa          	endbr64 
    5c0f:	55                   	push   %rbp
    5c10:	48 89 e5             	mov    %rsp,%rbp
    5c13:	b8 ff ff ff 7f       	mov    $0x7fffffff,%eax
    5c18:	5d                   	pop    %rbp
    5c19:	c3                   	retq   

0000000000005c1a <_ZN5Eigen8internal11noncopyableC1Ev>:
    5c1a:	f3 0f 1e fa          	endbr64 
    5c1e:	55                   	push   %rbp
    5c1f:	48 89 e5             	mov    %rsp,%rbp
    5c22:	48 89 7d f8          	mov    %rdi,-0x8(%rbp)
    5c26:	90                   	nop
    5c27:	5d                   	pop    %rbp
    5c28:	c3                   	retq   
    5c29:	90                   	nop

0000000000005c2a <_ZN5Eigen8internal11noncopyableD1Ev>:
    5c2a:	f3 0f 1e fa          	endbr64 
    5c2e:	55                   	push   %rbp
    5c2f:	48 89 e5             	mov    %rsp,%rbp
    5c32:	48 89 7d f8          	mov    %rdi,-0x8(%rbp)
    5c36:	90                   	nop
    5c37:	5d                   	pop    %rbp
    5c38:	c3                   	retq   

0000000000005c39 <_ZN5Eigen8internal19throw_std_bad_allocEv>:
    5c39:	f3 0f 1e fa          	endbr64 
    5c3d:	55                   	push   %rbp
    5c3e:	48 89 e5             	mov    %rsp,%rbp
    5c41:	53                   	push   %rbx
    5c42:	48 83 ec 08          	sub    $0x8,%rsp
    5c46:	bf 08 00 00 00       	mov    $0x8,%edi
    5c4b:	e8 20 d9 ff ff       	callq  3570 <__cxa_allocate_exception@plt>
    5c50:	48 89 c3             	mov    %rax,%rbx
    5c53:	48 89 df             	mov    %rbx,%rdi
    5c56:	e8 91 fe ff ff       	callq  5aec <_ZNSt9bad_allocC1Ev>
    5c5b:	48 8b 05 66 03 05 00 	mov    0x50366(%rip),%rax        # 55fc8 <_ZNSt9bad_allocD1Ev@GLIBCXX_3.4>
    5c62:	48 89 c2             	mov    %rax,%rdx
    5c65:	48 8d 35 d4 fe 04 00 	lea    0x4fed4(%rip),%rsi        # 55b40 <_ZTISt9bad_alloc@@GLIBCXX_3.4>
    5c6c:	48 89 df             	mov    %rbx,%rdi
    5c6f:	e8 8c db ff ff       	callq  3800 <__cxa_throw@plt>

0000000000005c74 <_ZN5Eigen8internal28check_that_malloc_is_allowedEv>:
    5c74:	f3 0f 1e fa          	endbr64 
    5c78:	55                   	push   %rbp
    5c79:	48 89 e5             	mov    %rsp,%rbp
    5c7c:	90                   	nop
    5c7d:	5d                   	pop    %rbp
    5c7e:	c3                   	retq   

0000000000005c7f <_ZN5Eigen8internal14aligned_mallocEm>:
    5c7f:	f3 0f 1e fa          	endbr64 
    5c83:	55                   	push   %rbp
    5c84:	48 89 e5             	mov    %rsp,%rbp
    5c87:	48 83 ec 20          	sub    $0x20,%rsp
    5c8b:	48 89 7d e8          	mov    %rdi,-0x18(%rbp)
    5c8f:	e8 e0 ff ff ff       	callq  5c74 <_ZN5Eigen8internal28check_that_malloc_is_allowedEv>
    5c94:	48 8b 45 e8          	mov    -0x18(%rbp),%rax
    5c98:	48 89 c7             	mov    %rax,%rdi
    5c9b:	e8 60 da ff ff       	callq  3700 <malloc@plt>
    5ca0:	48 89 45 f8          	mov    %rax,-0x8(%rbp)
    5ca4:	48 83 7d e8 0f       	cmpq   $0xf,-0x18(%rbp)
    5ca9:	76 2b                	jbe    5cd6 <_ZN5Eigen8internal14aligned_mallocEm+0x57>
    5cab:	48 8b 45 f8          	mov    -0x8(%rbp),%rax
    5caf:	83 e0 0f             	and    $0xf,%eax
    5cb2:	48 85 c0             	test   %rax,%rax
    5cb5:	74 1f                	je     5cd6 <_ZN5Eigen8internal14aligned_mallocEm+0x57>
    5cb7:	48 8d 0d a2 e3 02 00 	lea    0x2e3a2(%rip),%rcx        # 34060 <_ZN5EigenL14HereditaryBitsE+0x8>
    5cbe:	ba a1 00 00 00       	mov    $0xa1,%edx
    5cc3:	48 8d 35 ce e3 02 00 	lea    0x2e3ce(%rip),%rsi        # 34098 <_ZN5EigenL14HereditaryBitsE+0x40>
    5cca:	48 8d 3d 4f e4 02 00 	lea    0x2e44f(%rip),%rdi        # 34120 <_ZN5EigenL14HereditaryBitsE+0xc8>
    5cd1:	e8 fa d8 ff ff       	callq  35d0 <__assert_fail@plt>
    5cd6:	48 83 7d f8 00       	cmpq   $0x0,-0x8(%rbp)
    5cdb:	75 0c                	jne    5ce9 <_ZN5Eigen8internal14aligned_mallocEm+0x6a>
    5cdd:	48 83 7d e8 00       	cmpq   $0x0,-0x18(%rbp)
    5ce2:	74 05                	je     5ce9 <_ZN5Eigen8internal14aligned_mallocEm+0x6a>
    5ce4:	e8 50 ff ff ff       	callq  5c39 <_ZN5Eigen8internal19throw_std_bad_allocEv>
    5ce9:	48 8b 45 f8          	mov    -0x8(%rbp),%rax
    5ced:	c9                   	leaveq 
    5cee:	c3                   	retq   

0000000000005cef <_ZN5Eigen8internal12aligned_freeEPv>:
    5cef:	f3 0f 1e fa          	endbr64 
    5cf3:	55                   	push   %rbp
    5cf4:	48 89 e5             	mov    %rsp,%rbp
    5cf7:	48 83 ec 10          	sub    $0x10,%rsp
    5cfb:	48 89 7d f8          	mov    %rdi,-0x8(%rbp)
    5cff:	48 8b 45 f8          	mov    -0x8(%rbp),%rax
    5d03:	48 89 c7             	mov    %rax,%rdi
    5d06:	e8 b5 d9 ff ff       	callq  36c0 <free@plt>
    5d0b:	90                   	nop
    5d0c:	c9                   	leaveq 
    5d0d:	c3                   	retq   

0000000000005d0e <_ZN5Eigen8internal15cpuid_is_vendorEPiPKi>:
    5d0e:	f3 0f 1e fa          	endbr64 
    5d12:	55                   	push   %rbp
    5d13:	48 89 e5             	mov    %rsp,%rbp
    5d16:	48 89 7d f8          	mov    %rdi,-0x8(%rbp)
    5d1a:	48 89 75 f0          	mov    %rsi,-0x10(%rbp)
    5d1e:	48 8b 45 f8          	mov    -0x8(%rbp),%rax
    5d22:	48 83 c0 04          	add    $0x4,%rax
    5d26:	8b 10                	mov    (%rax),%edx
    5d28:	48 8b 45 f0          	mov    -0x10(%rbp),%rax
    5d2c:	8b 00                	mov    (%rax),%eax
    5d2e:	39 c2                	cmp    %eax,%edx
    5d30:	75 37                	jne    5d69 <_ZN5Eigen8internal15cpuid_is_vendorEPiPKi+0x5b>
    5d32:	48 8b 45 f8          	mov    -0x8(%rbp),%rax
    5d36:	48 83 c0 0c          	add    $0xc,%rax
    5d3a:	8b 10                	mov    (%rax),%edx
    5d3c:	48 8b 45 f0          	mov    -0x10(%rbp),%rax
    5d40:	48 83 c0 04          	add    $0x4,%rax
    5d44:	8b 00                	mov    (%rax),%eax
    5d46:	39 c2                	cmp    %eax,%edx
    5d48:	75 1f                	jne    5d69 <_ZN5Eigen8internal15cpuid_is_vendorEPiPKi+0x5b>
    5d4a:	48 8b 45 f8          	mov    -0x8(%rbp),%rax
    5d4e:	48 83 c0 08          	add    $0x8,%rax
    5d52:	8b 10                	mov    (%rax),%edx
    5d54:	48 8b 45 f0          	mov    -0x10(%rbp),%rax
    5d58:	48 83 c0 08          	add    $0x8,%rax
    5d5c:	8b 00                	mov    (%rax),%eax
    5d5e:	39 c2                	cmp    %eax,%edx
    5d60:	75 07                	jne    5d69 <_ZN5Eigen8internal15cpuid_is_vendorEPiPKi+0x5b>
    5d62:	b8 01 00 00 00       	mov    $0x1,%eax
    5d67:	eb 05                	jmp    5d6e <_ZN5Eigen8internal15cpuid_is_vendorEPiPKi+0x60>
    5d69:	b8 00 00 00 00       	mov    $0x0,%eax
    5d6e:	5d                   	pop    %rbp
    5d6f:	c3                   	retq   

0000000000005d70 <_ZN5Eigen8internal28queryCacheSizes_intel_directERiS1_S1_>:
    5d70:	f3 0f 1e fa          	endbr64 
    5d74:	55                   	push   %rbp
    5d75:	48 89 e5             	mov    %rsp,%rbp
    5d78:	48 83 ec 60          	sub    $0x60,%rsp
    5d7c:	48 89 7d b8          	mov    %rdi,-0x48(%rbp)
    5d80:	48 89 75 b0          	mov    %rsi,-0x50(%rbp)
    5d84:	48 89 55 a8          	mov    %rdx,-0x58(%rbp)
    5d88:	64 48 8b 04 25 28 00 	mov    %fs:0x28,%rax
    5d8f:	00 00 
    5d91:	48 89 45 f8          	mov    %rax,-0x8(%rbp)
    5d95:	31 c0                	xor    %eax,%eax
    5d97:	48 8b 45 a8          	mov    -0x58(%rbp),%rax
    5d9b:	c7 00 00 00 00 00    	movl   $0x0,(%rax)
    5da1:	48 8b 45 a8          	mov    -0x58(%rbp),%rax
    5da5:	8b 10                	mov    (%rax),%edx
    5da7:	48 8b 45 b0          	mov    -0x50(%rbp),%rax
    5dab:	89 10                	mov    %edx,(%rax)
    5dad:	48 8b 45 b0          	mov    -0x50(%rbp),%rax
    5db1:	8b 10                	mov    (%rax),%edx
    5db3:	48 8b 45 b8          	mov    -0x48(%rbp),%rax
    5db7:	89 10                	mov    %edx,(%rax)
    5db9:	c7 45 c0 00 00 00 00 	movl   $0x0,-0x40(%rbp)
    5dc0:	c7 45 c4 00 00 00 00 	movl   $0x0,-0x3c(%rbp)
    5dc7:	c7 45 ec 00 00 00 00 	movl   $0x0,-0x14(%rbp)
    5dce:	8b 45 ec             	mov    -0x14(%rbp),%eax
    5dd1:	89 45 e8             	mov    %eax,-0x18(%rbp)
    5dd4:	8b 45 e8             	mov    -0x18(%rbp),%eax
    5dd7:	89 45 e4             	mov    %eax,-0x1c(%rbp)
    5dda:	8b 45 e4             	mov    -0x1c(%rbp),%eax
    5ddd:	89 45 e0             	mov    %eax,-0x20(%rbp)
    5de0:	b8 04 00 00 00       	mov    $0x4,%eax
    5de5:	8b 55 c0             	mov    -0x40(%rbp),%edx
    5de8:	89 d1                	mov    %edx,%ecx
    5dea:	48 87 de             	xchg   %rbx,%rsi
    5ded:	0f a2                	cpuid  
    5def:	48 87 de             	xchg   %rbx,%rsi
    5df2:	89 45 e0             	mov    %eax,-0x20(%rbp)
    5df5:	89 75 e4             	mov    %esi,-0x1c(%rbp)
    5df8:	89 4d e8             	mov    %ecx,-0x18(%rbp)
    5dfb:	89 55 ec             	mov    %edx,-0x14(%rbp)
    5dfe:	8b 45 e0             	mov    -0x20(%rbp),%eax
    5e01:	83 e0 0f             	and    $0xf,%eax
    5e04:	89 45 c4             	mov    %eax,-0x3c(%rbp)
    5e07:	83 7d c4 01          	cmpl   $0x1,-0x3c(%rbp)
    5e0b:	74 0a                	je     5e17 <_ZN5Eigen8internal28queryCacheSizes_intel_directERiS1_S1_+0xa7>
    5e0d:	83 7d c4 03          	cmpl   $0x3,-0x3c(%rbp)
    5e11:	0f 85 94 00 00 00    	jne    5eab <_ZN5Eigen8internal28queryCacheSizes_intel_directERiS1_S1_+0x13b>
    5e17:	8b 45 e0             	mov    -0x20(%rbp),%eax
    5e1a:	c1 f8 05             	sar    $0x5,%eax
    5e1d:	83 e0 07             	and    $0x7,%eax
    5e20:	89 45 c8             	mov    %eax,-0x38(%rbp)
    5e23:	8b 45 e4             	mov    -0x1c(%rbp),%eax
    5e26:	c1 e8 16             	shr    $0x16,%eax
    5e29:	89 45 cc             	mov    %eax,-0x34(%rbp)
    5e2c:	8b 45 e4             	mov    -0x1c(%rbp),%eax
    5e2f:	c1 f8 0c             	sar    $0xc,%eax
    5e32:	25 ff 03 00 00       	and    $0x3ff,%eax
    5e37:	89 45 d0             	mov    %eax,-0x30(%rbp)
    5e3a:	8b 45 e4             	mov    -0x1c(%rbp),%eax
    5e3d:	25 ff 0f 00 00       	and    $0xfff,%eax
    5e42:	89 45 d4             	mov    %eax,-0x2c(%rbp)
    5e45:	8b 45 e8             	mov    -0x18(%rbp),%eax
    5e48:	89 45 d8             	mov    %eax,-0x28(%rbp)
    5e4b:	8b 45 cc             	mov    -0x34(%rbp),%eax
    5e4e:	8d 50 01             	lea    0x1(%rax),%edx
    5e51:	8b 45 d0             	mov    -0x30(%rbp),%eax
    5e54:	83 c0 01             	add    $0x1,%eax
    5e57:	0f af c2             	imul   %edx,%eax
    5e5a:	8b 55 d4             	mov    -0x2c(%rbp),%edx
    5e5d:	83 c2 01             	add    $0x1,%edx
    5e60:	0f af c2             	imul   %edx,%eax
    5e63:	8b 55 d8             	mov    -0x28(%rbp),%edx
    5e66:	83 c2 01             	add    $0x1,%edx
    5e69:	0f af c2             	imul   %edx,%eax
    5e6c:	89 45 dc             	mov    %eax,-0x24(%rbp)
    5e6f:	83 7d c8 03          	cmpl   $0x3,-0x38(%rbp)
    5e73:	74 2a                	je     5e9f <_ZN5Eigen8internal28queryCacheSizes_intel_directERiS1_S1_+0x12f>
    5e75:	83 7d c8 03          	cmpl   $0x3,-0x38(%rbp)
    5e79:	7f 2f                	jg     5eaa <_ZN5Eigen8internal28queryCacheSizes_intel_directERiS1_S1_+0x13a>
    5e7b:	83 7d c8 01          	cmpl   $0x1,-0x38(%rbp)
    5e7f:	74 08                	je     5e89 <_ZN5Eigen8internal28queryCacheSizes_intel_directERiS1_S1_+0x119>
    5e81:	83 7d c8 02          	cmpl   $0x2,-0x38(%rbp)
    5e85:	74 0d                	je     5e94 <_ZN5Eigen8internal28queryCacheSizes_intel_directERiS1_S1_+0x124>
    5e87:	eb 21                	jmp    5eaa <_ZN5Eigen8internal28queryCacheSizes_intel_directERiS1_S1_+0x13a>
    5e89:	48 8b 45 b8          	mov    -0x48(%rbp),%rax
    5e8d:	8b 55 dc             	mov    -0x24(%rbp),%edx
    5e90:	89 10                	mov    %edx,(%rax)
    5e92:	eb 17                	jmp    5eab <_ZN5Eigen8internal28queryCacheSizes_intel_directERiS1_S1_+0x13b>
    5e94:	48 8b 45 b0          	mov    -0x50(%rbp),%rax
    5e98:	8b 55 dc             	mov    -0x24(%rbp),%edx
    5e9b:	89 10                	mov    %edx,(%rax)
    5e9d:	eb 0c                	jmp    5eab <_ZN5Eigen8internal28queryCacheSizes_intel_directERiS1_S1_+0x13b>
    5e9f:	48 8b 45 a8          	mov    -0x58(%rbp),%rax
    5ea3:	8b 55 dc             	mov    -0x24(%rbp),%edx
    5ea6:	89 10                	mov    %edx,(%rax)
    5ea8:	eb 01                	jmp    5eab <_ZN5Eigen8internal28queryCacheSizes_intel_directERiS1_S1_+0x13b>
    5eaa:	90                   	nop
    5eab:	83 45 c0 01          	addl   $0x1,-0x40(%rbp)
    5eaf:	83 7d c4 00          	cmpl   $0x0,-0x3c(%rbp)
    5eb3:	7e 0b                	jle    5ec0 <_ZN5Eigen8internal28queryCacheSizes_intel_directERiS1_S1_+0x150>
    5eb5:	83 7d c0 0f          	cmpl   $0xf,-0x40(%rbp)
    5eb9:	7f 05                	jg     5ec0 <_ZN5Eigen8internal28queryCacheSizes_intel_directERiS1_S1_+0x150>
    5ebb:	e9 07 ff ff ff       	jmpq   5dc7 <_ZN5Eigen8internal28queryCacheSizes_intel_directERiS1_S1_+0x57>
    5ec0:	90                   	nop
    5ec1:	48 8b 45 f8          	mov    -0x8(%rbp),%rax
    5ec5:	64 48 33 04 25 28 00 	xor    %fs:0x28,%rax
    5ecc:	00 00 
    5ece:	74 05                	je     5ed5 <_ZN5Eigen8internal28queryCacheSizes_intel_directERiS1_S1_+0x165>
    5ed0:	e8 db d7 ff ff       	callq  36b0 <__stack_chk_fail@plt>
    5ed5:	c9                   	leaveq 
    5ed6:	c3                   	retq   

0000000000005ed7 <_ZN5Eigen8internal27queryCacheSizes_intel_codesERiS1_S1_>:
    5ed7:	f3 0f 1e fa          	endbr64 
    5edb:	55                   	push   %rbp
    5edc:	48 89 e5             	mov    %rsp,%rbp
    5edf:	48 83 ec 50          	sub    $0x50,%rsp
    5ee3:	48 89 7d c8          	mov    %rdi,-0x38(%rbp)
    5ee7:	48 89 75 c0          	mov    %rsi,-0x40(%rbp)
    5eeb:	48 89 55 b8          	mov    %rdx,-0x48(%rbp)
    5eef:	64 48 8b 04 25 28 00 	mov    %fs:0x28,%rax
    5ef6:	00 00 
    5ef8:	48 89 45 f8          	mov    %rax,-0x8(%rbp)
    5efc:	31 c0                	xor    %eax,%eax
    5efe:	c7 45 ec 00 00 00 00 	movl   $0x0,-0x14(%rbp)
    5f05:	8b 45 ec             	mov    -0x14(%rbp),%eax
    5f08:	89 45 e8             	mov    %eax,-0x18(%rbp)
    5f0b:	8b 45 e8             	mov    -0x18(%rbp),%eax
    5f0e:	89 45 e4             	mov    %eax,-0x1c(%rbp)
    5f11:	8b 45 e4             	mov    -0x1c(%rbp),%eax
    5f14:	89 45 e0             	mov    %eax,-0x20(%rbp)
    5f17:	48 8b 45 b8          	mov    -0x48(%rbp),%rax
    5f1b:	c7 00 00 00 00 00    	movl   $0x0,(%rax)
    5f21:	48 8b 45 b8          	mov    -0x48(%rbp),%rax
    5f25:	8b 10                	mov    (%rax),%edx
    5f27:	48 8b 45 c0          	mov    -0x40(%rbp),%rax
    5f2b:	89 10                	mov    %edx,(%rax)
    5f2d:	48 8b 45 c0          	mov    -0x40(%rbp),%rax
    5f31:	8b 10                	mov    (%rax),%edx
    5f33:	48 8b 45 c8          	mov    -0x38(%rbp),%rax
    5f37:	89 10                	mov    %edx,(%rax)
    5f39:	b8 02 00 00 00       	mov    $0x2,%eax
    5f3e:	ba 00 00 00 00       	mov    $0x0,%edx
    5f43:	89 d1                	mov    %edx,%ecx
    5f45:	48 87 de             	xchg   %rbx,%rsi
    5f48:	0f a2                	cpuid  
    5f4a:	48 87 de             	xchg   %rbx,%rsi
    5f4d:	89 45 e0             	mov    %eax,-0x20(%rbp)
    5f50:	89 75 e4             	mov    %esi,-0x1c(%rbp)
    5f53:	89 4d e8             	mov    %ecx,-0x18(%rbp)
    5f56:	89 55 ec             	mov    %edx,-0x14(%rbp)
    5f59:	48 8d 45 e0          	lea    -0x20(%rbp),%rax
    5f5d:	48 83 c0 02          	add    $0x2,%rax
    5f61:	48 89 45 d8          	mov    %rax,-0x28(%rbp)
    5f65:	c6 45 d3 00          	movb   $0x0,-0x2d(%rbp)
    5f69:	c7 45 d4 00 00 00 00 	movl   $0x0,-0x2c(%rbp)
    5f70:	83 7d d4 0d          	cmpl   $0xd,-0x2c(%rbp)
    5f74:	0f 8f ad 03 00 00    	jg     6327 <_ZN5Eigen8internal27queryCacheSizes_intel_codesERiS1_S1_+0x450>
    5f7a:	8b 45 d4             	mov    -0x2c(%rbp),%eax
    5f7d:	48 63 d0             	movslq %eax,%rdx
    5f80:	48 8b 45 d8          	mov    -0x28(%rbp),%rax
    5f84:	48 01 d0             	add    %rdx,%rax
    5f87:	0f b6 00             	movzbl (%rax),%eax
    5f8a:	0f b6 c0             	movzbl %al,%eax
    5f8d:	83 e8 0a             	sub    $0xa,%eax
    5f90:	3d 83 00 00 00       	cmp    $0x83,%eax
    5f95:	0f 87 82 03 00 00    	ja     631d <_ZN5Eigen8internal27queryCacheSizes_intel_codesERiS1_S1_+0x446>
    5f9b:	89 c0                	mov    %eax,%eax
    5f9d:	48 8d 14 85 00 00 00 	lea    0x0(,%rax,4),%rdx
    5fa4:	00 
    5fa5:	48 8d 05 1c 89 03 00 	lea    0x3891c(%rip),%rax        # 3e8c8 <_ZL17HIGH_MARGIN_SCALE+0xa6c8>
    5fac:	8b 04 02             	mov    (%rdx,%rax,1),%eax
    5faf:	48 98                	cltq   
    5fb1:	48 8d 15 10 89 03 00 	lea    0x38910(%rip),%rdx        # 3e8c8 <_ZL17HIGH_MARGIN_SCALE+0xa6c8>
    5fb8:	48 01 d0             	add    %rdx,%rax
    5fbb:	3e ff e0             	notrack jmpq *%rax
    5fbe:	48 8b 45 c8          	mov    -0x38(%rbp),%rax
    5fc2:	c7 00 08 00 00 00    	movl   $0x8,(%rax)
    5fc8:	e9 51 03 00 00       	jmpq   631e <_ZN5Eigen8internal27queryCacheSizes_intel_codesERiS1_S1_+0x447>
    5fcd:	48 8b 45 c8          	mov    -0x38(%rbp),%rax
    5fd1:	c7 00 10 00 00 00    	movl   $0x10,(%rax)
    5fd7:	e9 42 03 00 00       	jmpq   631e <_ZN5Eigen8internal27queryCacheSizes_intel_codesERiS1_S1_+0x447>
    5fdc:	48 8b 45 c8          	mov    -0x38(%rbp),%rax
    5fe0:	c7 00 18 00 00 00    	movl   $0x18,(%rax)
    5fe6:	e9 33 03 00 00       	jmpq   631e <_ZN5Eigen8internal27queryCacheSizes_intel_codesERiS1_S1_+0x447>
    5feb:	48 8b 45 c8          	mov    -0x38(%rbp),%rax
    5fef:	c7 00 10 00 00 00    	movl   $0x10,(%rax)
    5ff5:	e9 24 03 00 00       	jmpq   631e <_ZN5Eigen8internal27queryCacheSizes_intel_codesERiS1_S1_+0x447>
    5ffa:	48 8b 45 c8          	mov    -0x38(%rbp),%rax
    5ffe:	c7 00 10 00 00 00    	movl   $0x10,(%rax)
    6004:	e9 15 03 00 00       	jmpq   631e <_ZN5Eigen8internal27queryCacheSizes_intel_codesERiS1_S1_+0x447>
    6009:	48 8b 45 c8          	mov    -0x38(%rbp),%rax
    600d:	c7 00 20 00 00 00    	movl   $0x20,(%rax)
    6013:	e9 06 03 00 00       	jmpq   631e <_ZN5Eigen8internal27queryCacheSizes_intel_codesERiS1_S1_+0x447>
    6018:	48 8b 45 c8          	mov    -0x38(%rbp),%rax
    601c:	c7 00 20 00 00 00    	movl   $0x20,(%rax)
    6022:	e9 f7 02 00 00       	jmpq   631e <_ZN5Eigen8internal27queryCacheSizes_intel_codesERiS1_S1_+0x447>
    6027:	48 8b 45 c8          	mov    -0x38(%rbp),%rax
    602b:	c7 00 10 00 00 00    	movl   $0x10,(%rax)
    6031:	e9 e8 02 00 00       	jmpq   631e <_ZN5Eigen8internal27queryCacheSizes_intel_codesERiS1_S1_+0x447>
    6036:	48 8b 45 c8          	mov    -0x38(%rbp),%rax
    603a:	c7 00 08 00 00 00    	movl   $0x8,(%rax)
    6040:	e9 d9 02 00 00       	jmpq   631e <_ZN5Eigen8internal27queryCacheSizes_intel_codesERiS1_S1_+0x447>
    6045:	48 8b 45 c8          	mov    -0x38(%rbp),%rax
    6049:	c7 00 10 00 00 00    	movl   $0x10,(%rax)
    604f:	e9 ca 02 00 00       	jmpq   631e <_ZN5Eigen8internal27queryCacheSizes_intel_codesERiS1_S1_+0x447>
    6054:	48 8b 45 c8          	mov    -0x38(%rbp),%rax
    6058:	c7 00 20 00 00 00    	movl   $0x20,(%rax)
    605e:	e9 bb 02 00 00       	jmpq   631e <_ZN5Eigen8internal27queryCacheSizes_intel_codesERiS1_S1_+0x447>
    6063:	48 8b 45 c0          	mov    -0x40(%rbp),%rax
    6067:	c7 00 60 00 00 00    	movl   $0x60,(%rax)
    606d:	e9 ac 02 00 00       	jmpq   631e <_ZN5Eigen8internal27queryCacheSizes_intel_codesERiS1_S1_+0x447>
    6072:	48 8b 45 b8          	mov    -0x48(%rbp),%rax
    6076:	c7 00 00 02 00 00    	movl   $0x200,(%rax)
    607c:	e9 9d 02 00 00       	jmpq   631e <_ZN5Eigen8internal27queryCacheSizes_intel_codesERiS1_S1_+0x447>
    6081:	48 8b 45 b8          	mov    -0x48(%rbp),%rax
    6085:	c7 00 00 04 00 00    	movl   $0x400,(%rax)
    608b:	e9 8e 02 00 00       	jmpq   631e <_ZN5Eigen8internal27queryCacheSizes_intel_codesERiS1_S1_+0x447>
    6090:	48 8b 45 b8          	mov    -0x48(%rbp),%rax
    6094:	c7 00 00 08 00 00    	movl   $0x800,(%rax)
    609a:	e9 7f 02 00 00       	jmpq   631e <_ZN5Eigen8internal27queryCacheSizes_intel_codesERiS1_S1_+0x447>
    609f:	48 8b 45 b8          	mov    -0x48(%rbp),%rax
    60a3:	c7 00 00 10 00 00    	movl   $0x1000,(%rax)
    60a9:	e9 70 02 00 00       	jmpq   631e <_ZN5Eigen8internal27queryCacheSizes_intel_codesERiS1_S1_+0x447>
    60ae:	48 8b 45 c0          	mov    -0x40(%rbp),%rax
    60b2:	c7 00 80 00 00 00    	movl   $0x80,(%rax)
    60b8:	e9 61 02 00 00       	jmpq   631e <_ZN5Eigen8internal27queryCacheSizes_intel_codesERiS1_S1_+0x447>
    60bd:	48 8b 45 c0          	mov    -0x40(%rbp),%rax
    60c1:	c7 00 c0 00 00 00    	movl   $0xc0,(%rax)
    60c7:	e9 52 02 00 00       	jmpq   631e <_ZN5Eigen8internal27queryCacheSizes_intel_codesERiS1_S1_+0x447>
    60cc:	48 8b 45 c0          	mov    -0x40(%rbp),%rax
    60d0:	c7 00 80 00 00 00    	movl   $0x80,(%rax)
    60d6:	e9 43 02 00 00       	jmpq   631e <_ZN5Eigen8internal27queryCacheSizes_intel_codesERiS1_S1_+0x447>
    60db:	48 8b 45 c0          	mov    -0x40(%rbp),%rax
    60df:	c7 00 00 01 00 00    	movl   $0x100,(%rax)
    60e5:	e9 34 02 00 00       	jmpq   631e <_ZN5Eigen8internal27queryCacheSizes_intel_codesERiS1_S1_+0x447>
    60ea:	48 8b 45 c0          	mov    -0x40(%rbp),%rax
    60ee:	c7 00 80 01 00 00    	movl   $0x180,(%rax)
    60f4:	e9 25 02 00 00       	jmpq   631e <_ZN5Eigen8internal27queryCacheSizes_intel_codesERiS1_S1_+0x447>
    60f9:	48 8b 45 c0          	mov    -0x40(%rbp),%rax
    60fd:	c7 00 00 02 00 00    	movl   $0x200,(%rax)
    6103:	e9 16 02 00 00       	jmpq   631e <_ZN5Eigen8internal27queryCacheSizes_intel_codesERiS1_S1_+0x447>
    6108:	48 8b 45 c0          	mov    -0x40(%rbp),%rax
    610c:	c7 00 00 00 00 00    	movl   $0x0,(%rax)
    6112:	e9 07 02 00 00       	jmpq   631e <_ZN5Eigen8internal27queryCacheSizes_intel_codesERiS1_S1_+0x447>
    6117:	48 8b 45 c0          	mov    -0x40(%rbp),%rax
    611b:	c7 00 80 00 00 00    	movl   $0x80,(%rax)
    6121:	e9 f8 01 00 00       	jmpq   631e <_ZN5Eigen8internal27queryCacheSizes_intel_codesERiS1_S1_+0x447>
    6126:	48 8b 45 c0          	mov    -0x40(%rbp),%rax
    612a:	c7 00 00 01 00 00    	movl   $0x100,(%rax)
    6130:	e9 e9 01 00 00       	jmpq   631e <_ZN5Eigen8internal27queryCacheSizes_intel_codesERiS1_S1_+0x447>
    6135:	48 8b 45 c0          	mov    -0x40(%rbp),%rax
    6139:	c7 00 00 02 00 00    	movl   $0x200,(%rax)
    613f:	e9 da 01 00 00       	jmpq   631e <_ZN5Eigen8internal27queryCacheSizes_intel_codesERiS1_S1_+0x447>
    6144:	48 8b 45 c0          	mov    -0x40(%rbp),%rax
    6148:	c7 00 00 04 00 00    	movl   $0x400,(%rax)
    614e:	e9 cb 01 00 00       	jmpq   631e <_ZN5Eigen8internal27queryCacheSizes_intel_codesERiS1_S1_+0x447>
    6153:	48 8b 45 c0          	mov    -0x40(%rbp),%rax
    6157:	c7 00 00 08 00 00    	movl   $0x800,(%rax)
    615d:	e9 bc 01 00 00       	jmpq   631e <_ZN5Eigen8internal27queryCacheSizes_intel_codesERiS1_S1_+0x447>
    6162:	48 8b 45 b8          	mov    -0x48(%rbp),%rax
    6166:	c7 00 00 10 00 00    	movl   $0x1000,(%rax)
    616c:	e9 ad 01 00 00       	jmpq   631e <_ZN5Eigen8internal27queryCacheSizes_intel_codesERiS1_S1_+0x447>
    6171:	48 8b 45 b8          	mov    -0x48(%rbp),%rax
    6175:	c7 00 00 20 00 00    	movl   $0x2000,(%rax)
    617b:	e9 9e 01 00 00       	jmpq   631e <_ZN5Eigen8internal27queryCacheSizes_intel_codesERiS1_S1_+0x447>
    6180:	48 8b 45 c0          	mov    -0x40(%rbp),%rax
    6184:	c7 00 00 0c 00 00    	movl   $0xc00,(%rax)
    618a:	e9 8f 01 00 00       	jmpq   631e <_ZN5Eigen8internal27queryCacheSizes_intel_codesERiS1_S1_+0x447>
    618f:	48 8b 45 c0          	mov    -0x40(%rbp),%rax
    6193:	8b 00                	mov    (%rax),%eax
    6195:	85 c0                	test   %eax,%eax
    6197:	74 0f                	je     61a8 <_ZN5Eigen8internal27queryCacheSizes_intel_codesERiS1_S1_+0x2d1>
    6199:	48 8b 45 b8          	mov    -0x48(%rbp),%rax
    619d:	c7 00 00 10 00 00    	movl   $0x1000,(%rax)
    61a3:	e9 76 01 00 00       	jmpq   631e <_ZN5Eigen8internal27queryCacheSizes_intel_codesERiS1_S1_+0x447>
    61a8:	c6 45 d3 01          	movb   $0x1,-0x2d(%rbp)
    61ac:	48 8b 45 c0          	mov    -0x40(%rbp),%rax
    61b0:	c7 00 00 10 00 00    	movl   $0x1000,(%rax)
    61b6:	48 8b 45 c0          	mov    -0x40(%rbp),%rax
    61ba:	8b 10                	mov    (%rax),%edx
    61bc:	48 8b 45 b8          	mov    -0x48(%rbp),%rax
    61c0:	89 10                	mov    %edx,(%rax)
    61c2:	e9 57 01 00 00       	jmpq   631e <_ZN5Eigen8internal27queryCacheSizes_intel_codesERiS1_S1_+0x447>
    61c7:	48 8b 45 b8          	mov    -0x48(%rbp),%rax
    61cb:	c7 00 00 18 00 00    	movl   $0x1800,(%rax)
    61d1:	e9 48 01 00 00       	jmpq   631e <_ZN5Eigen8internal27queryCacheSizes_intel_codesERiS1_S1_+0x447>
    61d6:	48 8b 45 b8          	mov    -0x48(%rbp),%rax
    61da:	c7 00 00 20 00 00    	movl   $0x2000,(%rax)
    61e0:	e9 39 01 00 00       	jmpq   631e <_ZN5Eigen8internal27queryCacheSizes_intel_codesERiS1_S1_+0x447>
    61e5:	48 8b 45 b8          	mov    -0x48(%rbp),%rax
    61e9:	c7 00 00 30 00 00    	movl   $0x3000,(%rax)
    61ef:	e9 2a 01 00 00       	jmpq   631e <_ZN5Eigen8internal27queryCacheSizes_intel_codesERiS1_S1_+0x447>
    61f4:	48 8b 45 b8          	mov    -0x48(%rbp),%rax
    61f8:	c7 00 00 40 00 00    	movl   $0x4000,(%rax)
    61fe:	e9 1b 01 00 00       	jmpq   631e <_ZN5Eigen8internal27queryCacheSizes_intel_codesERiS1_S1_+0x447>
    6203:	48 8b 45 c0          	mov    -0x40(%rbp),%rax
    6207:	c7 00 00 18 00 00    	movl   $0x1800,(%rax)
    620d:	e9 0c 01 00 00       	jmpq   631e <_ZN5Eigen8internal27queryCacheSizes_intel_codesERiS1_S1_+0x447>
    6212:	48 8b 45 c0          	mov    -0x40(%rbp),%rax
    6216:	c7 00 00 04 00 00    	movl   $0x400,(%rax)
    621c:	e9 fd 00 00 00       	jmpq   631e <_ZN5Eigen8internal27queryCacheSizes_intel_codesERiS1_S1_+0x447>
    6221:	48 8b 45 c0          	mov    -0x40(%rbp),%rax
    6225:	c7 00 80 00 00 00    	movl   $0x80,(%rax)
    622b:	e9 ee 00 00 00       	jmpq   631e <_ZN5Eigen8internal27queryCacheSizes_intel_codesERiS1_S1_+0x447>
    6230:	48 8b 45 c0          	mov    -0x40(%rbp),%rax
    6234:	c7 00 00 01 00 00    	movl   $0x100,(%rax)
    623a:	e9 df 00 00 00       	jmpq   631e <_ZN5Eigen8internal27queryCacheSizes_intel_codesERiS1_S1_+0x447>
    623f:	48 8b 45 c0          	mov    -0x40(%rbp),%rax
    6243:	c7 00 00 02 00 00    	movl   $0x200,(%rax)
    6249:	e9 d0 00 00 00       	jmpq   631e <_ZN5Eigen8internal27queryCacheSizes_intel_codesERiS1_S1_+0x447>
    624e:	48 8b 45 c0          	mov    -0x40(%rbp),%rax
    6252:	c7 00 00 04 00 00    	movl   $0x400,(%rax)
    6258:	e9 c1 00 00 00       	jmpq   631e <_ZN5Eigen8internal27queryCacheSizes_intel_codesERiS1_S1_+0x447>
    625d:	48 8b 45 c0          	mov    -0x40(%rbp),%rax
    6261:	c7 00 00 08 00 00    	movl   $0x800,(%rax)
    6267:	e9 b2 00 00 00       	jmpq   631e <_ZN5Eigen8internal27queryCacheSizes_intel_codesERiS1_S1_+0x447>
    626c:	48 8b 45 c0          	mov    -0x40(%rbp),%rax
    6270:	c7 00 00 01 00 00    	movl   $0x100,(%rax)
    6276:	e9 a3 00 00 00       	jmpq   631e <_ZN5Eigen8internal27queryCacheSizes_intel_codesERiS1_S1_+0x447>
    627b:	48 8b 45 c0          	mov    -0x40(%rbp),%rax
    627f:	c7 00 00 02 00 00    	movl   $0x200,(%rax)
    6285:	e9 94 00 00 00       	jmpq   631e <_ZN5Eigen8internal27queryCacheSizes_intel_codesERiS1_S1_+0x447>
    628a:	48 8b 45 c0          	mov    -0x40(%rbp),%rax
    628e:	c7 00 00 02 00 00    	movl   $0x200,(%rax)
    6294:	e9 85 00 00 00       	jmpq   631e <_ZN5Eigen8internal27queryCacheSizes_intel_codesERiS1_S1_+0x447>
    6299:	48 8b 45 c0          	mov    -0x40(%rbp),%rax
    629d:	c7 00 80 00 00 00    	movl   $0x80,(%rax)
    62a3:	eb 79                	jmp    631e <_ZN5Eigen8internal27queryCacheSizes_intel_codesERiS1_S1_+0x447>
    62a5:	48 8b 45 c0          	mov    -0x40(%rbp),%rax
    62a9:	c7 00 00 01 00 00    	movl   $0x100,(%rax)
    62af:	eb 6d                	jmp    631e <_ZN5Eigen8internal27queryCacheSizes_intel_codesERiS1_S1_+0x447>
    62b1:	48 8b 45 c0          	mov    -0x40(%rbp),%rax
    62b5:	c7 00 00 02 00 00    	movl   $0x200,(%rax)
    62bb:	eb 61                	jmp    631e <_ZN5Eigen8internal27queryCacheSizes_intel_codesERiS1_S1_+0x447>
    62bd:	48 8b 45 c0          	mov    -0x40(%rbp),%rax
    62c1:	c7 00 00 04 00 00    	movl   $0x400,(%rax)
    62c7:	eb 55                	jmp    631e <_ZN5Eigen8internal27queryCacheSizes_intel_codesERiS1_S1_+0x447>
    62c9:	48 8b 45 c0          	mov    -0x40(%rbp),%rax
    62cd:	c7 00 00 08 00 00    	movl   $0x800,(%rax)
    62d3:	eb 49                	jmp    631e <_ZN5Eigen8internal27queryCacheSizes_intel_codesERiS1_S1_+0x447>
    62d5:	48 8b 45 c0          	mov    -0x40(%rbp),%rax
    62d9:	c7 00 00 02 00 00    	movl   $0x200,(%rax)
    62df:	eb 3d                	jmp    631e <_ZN5Eigen8internal27queryCacheSizes_intel_codesERiS1_S1_+0x447>
    62e1:	48 8b 45 c0          	mov    -0x40(%rbp),%rax
    62e5:	c7 00 00 04 00 00    	movl   $0x400,(%rax)
    62eb:	eb 31                	jmp    631e <_ZN5Eigen8internal27queryCacheSizes_intel_codesERiS1_S1_+0x447>
    62ed:	48 8b 45 b8          	mov    -0x48(%rbp),%rax
    62f1:	c7 00 00 08 00 00    	movl   $0x800,(%rax)
    62f7:	eb 25                	jmp    631e <_ZN5Eigen8internal27queryCacheSizes_intel_codesERiS1_S1_+0x447>
    62f9:	48 8b 45 b8          	mov    -0x48(%rbp),%rax
    62fd:	c7 00 00 10 00 00    	movl   $0x1000,(%rax)
    6303:	eb 19                	jmp    631e <_ZN5Eigen8internal27queryCacheSizes_intel_codesERiS1_S1_+0x447>
    6305:	48 8b 45 b8          	mov    -0x48(%rbp),%rax
    6309:	c7 00 00 20 00 00    	movl   $0x2000,(%rax)
    630f:	eb 0d                	jmp    631e <_ZN5Eigen8internal27queryCacheSizes_intel_codesERiS1_S1_+0x447>
    6311:	48 8b 45 b8          	mov    -0x48(%rbp),%rax
    6315:	c7 00 00 0c 00 00    	movl   $0xc00,(%rax)
    631b:	eb 01                	jmp    631e <_ZN5Eigen8internal27queryCacheSizes_intel_codesERiS1_S1_+0x447>
    631d:	90                   	nop
    631e:	83 45 d4 01          	addl   $0x1,-0x2c(%rbp)
    6322:	e9 49 fc ff ff       	jmpq   5f70 <_ZN5Eigen8internal27queryCacheSizes_intel_codesERiS1_S1_+0x99>
    6327:	80 7d d3 00          	cmpb   $0x0,-0x2d(%rbp)
    632b:	74 1a                	je     6347 <_ZN5Eigen8internal27queryCacheSizes_intel_codesERiS1_S1_+0x470>
    632d:	48 8b 45 c0          	mov    -0x40(%rbp),%rax
    6331:	8b 10                	mov    (%rax),%edx
    6333:	48 8b 45 b8          	mov    -0x48(%rbp),%rax
    6337:	8b 00                	mov    (%rax),%eax
    6339:	39 c2                	cmp    %eax,%edx
    633b:	75 0a                	jne    6347 <_ZN5Eigen8internal27queryCacheSizes_intel_codesERiS1_S1_+0x470>
    633d:	48 8b 45 b8          	mov    -0x48(%rbp),%rax
    6341:	c7 00 00 00 00 00    	movl   $0x0,(%rax)
    6347:	48 8b 45 c8          	mov    -0x38(%rbp),%rax
    634b:	8b 00                	mov    (%rax),%eax
    634d:	c1 e0 0a             	shl    $0xa,%eax
    6350:	89 c2                	mov    %eax,%edx
    6352:	48 8b 45 c8          	mov    -0x38(%rbp),%rax
    6356:	89 10                	mov    %edx,(%rax)
    6358:	48 8b 45 c0          	mov    -0x40(%rbp),%rax
    635c:	8b 00                	mov    (%rax),%eax
    635e:	c1 e0 0a             	shl    $0xa,%eax
    6361:	89 c2                	mov    %eax,%edx
    6363:	48 8b 45 c0          	mov    -0x40(%rbp),%rax
    6367:	89 10                	mov    %edx,(%rax)
    6369:	48 8b 45 b8          	mov    -0x48(%rbp),%rax
    636d:	8b 00                	mov    (%rax),%eax
    636f:	c1 e0 0a             	shl    $0xa,%eax
    6372:	89 c2                	mov    %eax,%edx
    6374:	48 8b 45 b8          	mov    -0x48(%rbp),%rax
    6378:	89 10                	mov    %edx,(%rax)
    637a:	90                   	nop
    637b:	48 8b 45 f8          	mov    -0x8(%rbp),%rax
    637f:	64 48 33 04 25 28 00 	xor    %fs:0x28,%rax
    6386:	00 00 
    6388:	74 05                	je     638f <_ZN5Eigen8internal27queryCacheSizes_intel_codesERiS1_S1_+0x4b8>
    638a:	e8 21 d3 ff ff       	callq  36b0 <__stack_chk_fail@plt>
    638f:	c9                   	leaveq 
    6390:	c3                   	retq   

0000000000006391 <_ZN5Eigen8internal21queryCacheSizes_intelERiS1_S1_i>:
    6391:	f3 0f 1e fa          	endbr64 
    6395:	55                   	push   %rbp
    6396:	48 89 e5             	mov    %rsp,%rbp
    6399:	48 83 ec 20          	sub    $0x20,%rsp
    639d:	48 89 7d f8          	mov    %rdi,-0x8(%rbp)
    63a1:	48 89 75 f0          	mov    %rsi,-0x10(%rbp)
    63a5:	48 89 55 e8          	mov    %rdx,-0x18(%rbp)
    63a9:	89 4d e4             	mov    %ecx,-0x1c(%rbp)
    63ac:	83 7d e4 03          	cmpl   $0x3,-0x1c(%rbp)
    63b0:	7e 19                	jle    63cb <_ZN5Eigen8internal21queryCacheSizes_intelERiS1_S1_i+0x3a>
    63b2:	48 8b 55 e8          	mov    -0x18(%rbp),%rdx
    63b6:	48 8b 4d f0          	mov    -0x10(%rbp),%rcx
    63ba:	48 8b 45 f8          	mov    -0x8(%rbp),%rax
    63be:	48 89 ce             	mov    %rcx,%rsi
    63c1:	48 89 c7             	mov    %rax,%rdi
    63c4:	e8 a7 f9 ff ff       	callq  5d70 <_ZN5Eigen8internal28queryCacheSizes_intel_directERiS1_S1_>
    63c9:	eb 17                	jmp    63e2 <_ZN5Eigen8internal21queryCacheSizes_intelERiS1_S1_i+0x51>
    63cb:	48 8b 55 e8          	mov    -0x18(%rbp),%rdx
    63cf:	48 8b 4d f0          	mov    -0x10(%rbp),%rcx
    63d3:	48 8b 45 f8          	mov    -0x8(%rbp),%rax
    63d7:	48 89 ce             	mov    %rcx,%rsi
    63da:	48 89 c7             	mov    %rax,%rdi
    63dd:	e8 f5 fa ff ff       	callq  5ed7 <_ZN5Eigen8internal27queryCacheSizes_intel_codesERiS1_S1_>
    63e2:	90                   	nop
    63e3:	c9                   	leaveq 
    63e4:	c3                   	retq   

00000000000063e5 <_ZN5Eigen8internal19queryCacheSizes_amdERiS1_S1_>:
    63e5:	f3 0f 1e fa          	endbr64 
    63e9:	55                   	push   %rbp
    63ea:	48 89 e5             	mov    %rsp,%rbp
    63ed:	48 83 ec 40          	sub    $0x40,%rsp
    63f1:	48 89 7d d8          	mov    %rdi,-0x28(%rbp)
    63f5:	48 89 75 d0          	mov    %rsi,-0x30(%rbp)
    63f9:	48 89 55 c8          	mov    %rdx,-0x38(%rbp)
    63fd:	64 48 8b 04 25 28 00 	mov    %fs:0x28,%rax
    6404:	00 00 
    6406:	48 89 45 f8          	mov    %rax,-0x8(%rbp)
    640a:	31 c0                	xor    %eax,%eax
    640c:	c7 45 ec 00 00 00 00 	movl   $0x0,-0x14(%rbp)
    6413:	8b 45 ec             	mov    -0x14(%rbp),%eax
    6416:	89 45 e8             	mov    %eax,-0x18(%rbp)
    6419:	8b 45 e8             	mov    -0x18(%rbp),%eax
    641c:	89 45 e4             	mov    %eax,-0x1c(%rbp)
    641f:	8b 45 e4             	mov    -0x1c(%rbp),%eax
    6422:	89 45 e0             	mov    %eax,-0x20(%rbp)
    6425:	b8 05 00 00 80       	mov    $0x80000005,%eax
    642a:	ba 00 00 00 00       	mov    $0x0,%edx
    642f:	89 d1                	mov    %edx,%ecx
    6431:	48 87 de             	xchg   %rbx,%rsi
    6434:	0f a2                	cpuid  
    6436:	48 87 de             	xchg   %rbx,%rsi
    6439:	89 45 e0             	mov    %eax,-0x20(%rbp)
    643c:	89 75 e4             	mov    %esi,-0x1c(%rbp)
    643f:	89 4d e8             	mov    %ecx,-0x18(%rbp)
    6442:	89 55 ec             	mov    %edx,-0x14(%rbp)
    6445:	8b 45 e8             	mov    -0x18(%rbp),%eax
    6448:	c1 f8 18             	sar    $0x18,%eax
    644b:	c1 e0 0a             	shl    $0xa,%eax
    644e:	89 c2                	mov    %eax,%edx
    6450:	48 8b 45 d8          	mov    -0x28(%rbp),%rax
    6454:	89 10                	mov    %edx,(%rax)
    6456:	c7 45 ec 00 00 00 00 	movl   $0x0,-0x14(%rbp)
    645d:	8b 45 ec             	mov    -0x14(%rbp),%eax
    6460:	89 45 e8             	mov    %eax,-0x18(%rbp)
    6463:	8b 45 e8             	mov    -0x18(%rbp),%eax
    6466:	89 45 e4             	mov    %eax,-0x1c(%rbp)
    6469:	8b 45 e4             	mov    -0x1c(%rbp),%eax
    646c:	89 45 e0             	mov    %eax,-0x20(%rbp)
    646f:	b8 06 00 00 80       	mov    $0x80000006,%eax
    6474:	ba 00 00 00 00       	mov    $0x0,%edx
    6479:	89 d1                	mov    %edx,%ecx
    647b:	48 87 de             	xchg   %rbx,%rsi
    647e:	0f a2                	cpuid  
    6480:	48 87 de             	xchg   %rbx,%rsi
    6483:	89 45 e0             	mov    %eax,-0x20(%rbp)
    6486:	89 75 e4             	mov    %esi,-0x1c(%rbp)
    6489:	89 4d e8             	mov    %ecx,-0x18(%rbp)
    648c:	89 55 ec             	mov    %edx,-0x14(%rbp)
    648f:	8b 45 e8             	mov    -0x18(%rbp),%eax
    6492:	c1 f8 10             	sar    $0x10,%eax
    6495:	c1 e0 0a             	shl    $0xa,%eax
    6498:	89 c2                	mov    %eax,%edx
    649a:	48 8b 45 d0          	mov    -0x30(%rbp),%rax
    649e:	89 10                	mov    %edx,(%rax)
    64a0:	8b 45 ec             	mov    -0x14(%rbp),%eax
    64a3:	c1 f8 12             	sar    $0x12,%eax
    64a6:	25 ff 03 00 00       	and    $0x3ff,%eax
    64ab:	c1 e0 13             	shl    $0x13,%eax
    64ae:	89 c2                	mov    %eax,%edx
    64b0:	48 8b 45 c8          	mov    -0x38(%rbp),%rax
    64b4:	89 10                	mov    %edx,(%rax)
    64b6:	90                   	nop
    64b7:	48 8b 45 f8          	mov    -0x8(%rbp),%rax
    64bb:	64 48 33 04 25 28 00 	xor    %fs:0x28,%rax
    64c2:	00 00 
    64c4:	74 05                	je     64cb <_ZN5Eigen8internal19queryCacheSizes_amdERiS1_S1_+0xe6>
    64c6:	e8 e5 d1 ff ff       	callq  36b0 <__stack_chk_fail@plt>
    64cb:	c9                   	leaveq 
    64cc:	c3                   	retq   

00000000000064cd <_ZN5Eigen8internal15queryCacheSizesERiS1_S1_>:
    64cd:	f3 0f 1e fa          	endbr64 
    64d1:	55                   	push   %rbp
    64d2:	48 89 e5             	mov    %rsp,%rbp
    64d5:	48 83 ec 70          	sub    $0x70,%rsp
    64d9:	48 89 7d a8          	mov    %rdi,-0x58(%rbp)
    64dd:	48 89 75 a0          	mov    %rsi,-0x60(%rbp)
    64e1:	48 89 55 98          	mov    %rdx,-0x68(%rbp)
    64e5:	64 48 8b 04 25 28 00 	mov    %fs:0x28,%rax
    64ec:	00 00 
    64ee:	48 89 45 f8          	mov    %rax,-0x8(%rbp)
    64f2:	31 c0                	xor    %eax,%eax
    64f4:	c7 45 bc 47 65 6e 75 	movl   $0x756e6547,-0x44(%rbp)
    64fb:	c7 45 c0 69 6e 65 49 	movl   $0x49656e69,-0x40(%rbp)
    6502:	c7 45 c4 6e 74 65 6c 	movl   $0x6c65746e,-0x3c(%rbp)
    6509:	c7 45 c8 41 75 74 68 	movl   $0x68747541,-0x38(%rbp)
    6510:	c7 45 cc 65 6e 74 69 	movl   $0x69746e65,-0x34(%rbp)
    6517:	c7 45 d0 63 41 4d 44 	movl   $0x444d4163,-0x30(%rbp)
    651e:	c7 45 d4 41 4d 44 69 	movl   $0x69444d41,-0x2c(%rbp)
    6525:	c7 45 d8 73 62 65 74 	movl   $0x74656273,-0x28(%rbp)
    652c:	c7 45 dc 74 65 72 21 	movl   $0x21726574,-0x24(%rbp)
    6533:	b8 00 00 00 00       	mov    $0x0,%eax
    6538:	ba 00 00 00 00       	mov    $0x0,%edx
    653d:	89 d1                	mov    %edx,%ecx
    653f:	48 87 de             	xchg   %rbx,%rsi
    6542:	0f a2                	cpuid  
    6544:	48 87 de             	xchg   %rbx,%rsi
    6547:	89 45 e0             	mov    %eax,-0x20(%rbp)
    654a:	89 75 e4             	mov    %esi,-0x1c(%rbp)
    654d:	89 4d e8             	mov    %ecx,-0x18(%rbp)
    6550:	89 55 ec             	mov    %edx,-0x14(%rbp)
    6553:	8b 45 e4             	mov    -0x1c(%rbp),%eax
    6556:	89 45 b8             	mov    %eax,-0x48(%rbp)
    6559:	48 8d 55 bc          	lea    -0x44(%rbp),%rdx
    655d:	48 8d 45 e0          	lea    -0x20(%rbp),%rax
    6561:	48 89 d6             	mov    %rdx,%rsi
    6564:	48 89 c7             	mov    %rax,%rdi
    6567:	e8 a2 f7 ff ff       	callq  5d0e <_ZN5Eigen8internal15cpuid_is_vendorEPiPKi>
    656c:	84 c0                	test   %al,%al
    656e:	74 19                	je     6589 <_ZN5Eigen8internal15queryCacheSizesERiS1_S1_+0xbc>
    6570:	8b 4d b8             	mov    -0x48(%rbp),%ecx
    6573:	48 8b 55 98          	mov    -0x68(%rbp),%rdx
    6577:	48 8b 75 a0          	mov    -0x60(%rbp),%rsi
    657b:	48 8b 45 a8          	mov    -0x58(%rbp),%rax
    657f:	48 89 c7             	mov    %rax,%rdi
    6582:	e8 0a fe ff ff       	callq  6391 <_ZN5Eigen8internal21queryCacheSizes_intelERiS1_S1_i>
    6587:	eb 6e                	jmp    65f7 <_ZN5Eigen8internal15queryCacheSizesERiS1_S1_+0x12a>
    6589:	48 8d 55 c8          	lea    -0x38(%rbp),%rdx
    658d:	48 8d 45 e0          	lea    -0x20(%rbp),%rax
    6591:	48 89 d6             	mov    %rdx,%rsi
    6594:	48 89 c7             	mov    %rax,%rdi
    6597:	e8 72 f7 ff ff       	callq  5d0e <_ZN5Eigen8internal15cpuid_is_vendorEPiPKi>
    659c:	84 c0                	test   %al,%al
    659e:	75 17                	jne    65b7 <_ZN5Eigen8internal15queryCacheSizesERiS1_S1_+0xea>
    65a0:	48 8d 55 d4          	lea    -0x2c(%rbp),%rdx
    65a4:	48 8d 45 e0          	lea    -0x20(%rbp),%rax
    65a8:	48 89 d6             	mov    %rdx,%rsi
    65ab:	48 89 c7             	mov    %rax,%rdi
    65ae:	e8 5b f7 ff ff       	callq  5d0e <_ZN5Eigen8internal15cpuid_is_vendorEPiPKi>
    65b3:	84 c0                	test   %al,%al
    65b5:	74 07                	je     65be <_ZN5Eigen8internal15queryCacheSizesERiS1_S1_+0xf1>
    65b7:	b8 01 00 00 00       	mov    $0x1,%eax
    65bc:	eb 05                	jmp    65c3 <_ZN5Eigen8internal15queryCacheSizesERiS1_S1_+0xf6>
    65be:	b8 00 00 00 00       	mov    $0x0,%eax
    65c3:	84 c0                	test   %al,%al
    65c5:	74 19                	je     65e0 <_ZN5Eigen8internal15queryCacheSizesERiS1_S1_+0x113>
    65c7:	48 8b 55 98          	mov    -0x68(%rbp),%rdx
    65cb:	48 8b 4d a0          	mov    -0x60(%rbp),%rcx
    65cf:	48 8b 45 a8          	mov    -0x58(%rbp),%rax
    65d3:	48 89 ce             	mov    %rcx,%rsi
    65d6:	48 89 c7             	mov    %rax,%rdi
    65d9:	e8 07 fe ff ff       	callq  63e5 <_ZN5Eigen8internal19queryCacheSizes_amdERiS1_S1_>
    65de:	eb 17                	jmp    65f7 <_ZN5Eigen8internal15queryCacheSizesERiS1_S1_+0x12a>
    65e0:	8b 4d b8             	mov    -0x48(%rbp),%ecx
    65e3:	48 8b 55 98          	mov    -0x68(%rbp),%rdx
    65e7:	48 8b 75 a0          	mov    -0x60(%rbp),%rsi
    65eb:	48 8b 45 a8          	mov    -0x58(%rbp),%rax
    65ef:	48 89 c7             	mov    %rax,%rdi
    65f2:	e8 9a fd ff ff       	callq  6391 <_ZN5Eigen8internal21queryCacheSizes_intelERiS1_S1_i>
    65f7:	90                   	nop
    65f8:	48 8b 45 f8          	mov    -0x8(%rbp),%rax
    65fc:	64 48 33 04 25 28 00 	xor    %fs:0x28,%rax
    6603:	00 00 
    6605:	74 05                	je     660c <_ZN5Eigen8internal15queryCacheSizesERiS1_S1_+0x13f>
    6607:	e8 a4 d0 ff ff       	callq  36b0 <__stack_chk_fail@plt>
    660c:	c9                   	leaveq 
    660d:	c3                   	retq   

000000000000660e <_ZN5Eigen8internal5pset1IDv2_dEET_RKNS0_15unpacket_traitsIS3_E4typeE>:
    660e:	f3 0f 1e fa          	endbr64 
    6612:	55                   	push   %rbp
    6613:	48 89 e5             	mov    %rsp,%rbp
    6616:	48 89 7d e8          	mov    %rdi,-0x18(%rbp)
    661a:	48 8b 45 e8          	mov    -0x18(%rbp),%rax
    661e:	f2 0f 10 00          	movsd  (%rax),%xmm0
    6622:	f2 0f 11 45 f8       	movsd  %xmm0,-0x8(%rbp)
    6627:	f2 0f 10 45 f8       	movsd  -0x8(%rbp),%xmm0
    662c:	66 0f 14 c0          	unpcklpd %xmm0,%xmm0
    6630:	5d                   	pop    %rbp
    6631:	c3                   	retq   

0000000000006632 <_ZN5Eigen8internal4paddIDv2_dEET_RKS3_S5_>:
    6632:	f3 0f 1e fa          	endbr64 
    6636:	55                   	push   %rbp
    6637:	48 89 e5             	mov    %rsp,%rbp
    663a:	48 89 7d d8          	mov    %rdi,-0x28(%rbp)
    663e:	48 89 75 d0          	mov    %rsi,-0x30(%rbp)
    6642:	48 8b 45 d0          	mov    -0x30(%rbp),%rax
    6646:	66 0f 28 00          	movapd (%rax),%xmm0
    664a:	48 8b 45 d8          	mov    -0x28(%rbp),%rax
    664e:	66 0f 28 08          	movapd (%rax),%xmm1
    6652:	0f 29 4d e0          	movaps %xmm1,-0x20(%rbp)
    6656:	0f 29 45 f0          	movaps %xmm0,-0x10(%rbp)
    665a:	66 0f 28 45 e0       	movapd -0x20(%rbp),%xmm0
    665f:	66 0f 58 45 f0       	addpd  -0x10(%rbp),%xmm0
    6664:	5d                   	pop    %rbp
    6665:	c3                   	retq   

0000000000006666 <_ZN5Eigen8internal4psubIDv2_dEET_RKS3_S5_>:
    6666:	f3 0f 1e fa          	endbr64 
    666a:	55                   	push   %rbp
    666b:	48 89 e5             	mov    %rsp,%rbp
    666e:	48 89 7d d8          	mov    %rdi,-0x28(%rbp)
    6672:	48 89 75 d0          	mov    %rsi,-0x30(%rbp)
    6676:	48 8b 45 d0          	mov    -0x30(%rbp),%rax
    667a:	66 0f 28 00          	movapd (%rax),%xmm0
    667e:	48 8b 45 d8          	mov    -0x28(%rbp),%rax
    6682:	66 0f 28 08          	movapd (%rax),%xmm1
    6686:	0f 29 4d e0          	movaps %xmm1,-0x20(%rbp)
    668a:	0f 29 45 f0          	movaps %xmm0,-0x10(%rbp)
    668e:	66 0f 28 45 e0       	movapd -0x20(%rbp),%xmm0
    6693:	66 0f 5c 45 f0       	subpd  -0x10(%rbp),%xmm0
    6698:	5d                   	pop    %rbp
    6699:	c3                   	retq   

000000000000669a <_ZN5Eigen8internal4pmulIDv2_dEET_RKS3_S5_>:
    669a:	f3 0f 1e fa          	endbr64 
    669e:	55                   	push   %rbp
    669f:	48 89 e5             	mov    %rsp,%rbp
    66a2:	48 89 7d d8          	mov    %rdi,-0x28(%rbp)
    66a6:	48 89 75 d0          	mov    %rsi,-0x30(%rbp)
    66aa:	48 8b 45 d0          	mov    -0x30(%rbp),%rax
    66ae:	66 0f 28 00          	movapd (%rax),%xmm0
    66b2:	48 8b 45 d8          	mov    -0x28(%rbp),%rax
    66b6:	66 0f 28 08          	movapd (%rax),%xmm1
    66ba:	0f 29 4d e0          	movaps %xmm1,-0x20(%rbp)
    66be:	0f 29 45 f0          	movaps %xmm0,-0x10(%rbp)
    66c2:	66 0f 28 45 e0       	movapd -0x20(%rbp),%xmm0
    66c7:	66 0f 59 45 f0       	mulpd  -0x10(%rbp),%xmm0
    66cc:	5d                   	pop    %rbp
    66cd:	c3                   	retq   

00000000000066ce <_ZN5Eigen8internal4pdivIDv2_dEET_RKS3_S5_>:
    66ce:	f3 0f 1e fa          	endbr64 
    66d2:	55                   	push   %rbp
    66d3:	48 89 e5             	mov    %rsp,%rbp
    66d6:	48 89 7d d8          	mov    %rdi,-0x28(%rbp)
    66da:	48 89 75 d0          	mov    %rsi,-0x30(%rbp)
    66de:	48 8b 45 d0          	mov    -0x30(%rbp),%rax
    66e2:	66 0f 28 00          	movapd (%rax),%xmm0
    66e6:	48 8b 45 d8          	mov    -0x28(%rbp),%rax
    66ea:	66 0f 28 08          	movapd (%rax),%xmm1
    66ee:	0f 29 4d e0          	movaps %xmm1,-0x20(%rbp)
    66f2:	0f 29 45 f0          	movaps %xmm0,-0x10(%rbp)
    66f6:	66 0f 28 45 e0       	movapd -0x20(%rbp),%xmm0
    66fb:	66 0f 5e 45 f0       	divpd  -0x10(%rbp),%xmm0
    6700:	5d                   	pop    %rbp
    6701:	c3                   	retq   

0000000000006702 <_ZN5Eigen8internal5ploadIDv2_dEET_PKNS0_15unpacket_traitsIS3_E4typeE>:
    6702:	f3 0f 1e fa          	endbr64 
    6706:	55                   	push   %rbp
    6707:	48 89 e5             	mov    %rsp,%rbp
    670a:	48 89 7d e8          	mov    %rdi,-0x18(%rbp)
    670e:	48 8b 45 e8          	mov    -0x18(%rbp),%rax
    6712:	48 89 45 f8          	mov    %rax,-0x8(%rbp)
    6716:	48 8b 45 f8          	mov    -0x8(%rbp),%rax
    671a:	66 0f 28 00          	movapd (%rax),%xmm0
    671e:	5d                   	pop    %rbp
    671f:	c3                   	retq   

0000000000006720 <_ZN5Eigen8internal6ploaduIDv2_dEET_PKNS0_15unpacket_traitsIS3_E4typeE>:
    6720:	f3 0f 1e fa          	endbr64 
    6724:	55                   	push   %rbp
    6725:	48 89 e5             	mov    %rsp,%rbp
    6728:	48 89 7d e8          	mov    %rdi,-0x18(%rbp)
    672c:	48 8b 45 e8          	mov    -0x18(%rbp),%rax
    6730:	48 89 45 f8          	mov    %rax,-0x8(%rbp)
    6734:	48 8b 45 f8          	mov    -0x8(%rbp),%rax
    6738:	66 0f 10 00          	movupd (%rax),%xmm0
    673c:	5d                   	pop    %rbp
    673d:	c3                   	retq   

000000000000673e <_ZN5Eigen8internal6pstoreIdDv2_dEEvPT_RKT0_>:
    673e:	f3 0f 1e fa          	endbr64 
    6742:	55                   	push   %rbp
    6743:	48 89 e5             	mov    %rsp,%rbp
    6746:	48 89 7d d8          	mov    %rdi,-0x28(%rbp)
    674a:	48 89 75 d0          	mov    %rsi,-0x30(%rbp)
    674e:	48 8b 45 d0          	mov    -0x30(%rbp),%rax
    6752:	66 0f 28 00          	movapd (%rax),%xmm0
    6756:	48 8b 45 d8          	mov    -0x28(%rbp),%rax
    675a:	48 89 45 e8          	mov    %rax,-0x18(%rbp)
    675e:	0f 29 45 f0          	movaps %xmm0,-0x10(%rbp)
    6762:	48 8b 45 e8          	mov    -0x18(%rbp),%rax
    6766:	66 0f 28 45 f0       	movapd -0x10(%rbp),%xmm0
    676b:	0f 29 00             	movaps %xmm0,(%rax)
    676e:	90                   	nop
    676f:	90                   	nop
    6770:	5d                   	pop    %rbp
    6771:	c3                   	retq   

0000000000006772 <_ZN5Eigen8internal7pstoreuIdDv2_dEEvPT_RKT0_>:
    6772:	f3 0f 1e fa          	endbr64 
    6776:	55                   	push   %rbp
    6777:	48 89 e5             	mov    %rsp,%rbp
    677a:	48 89 7d d8          	mov    %rdi,-0x28(%rbp)
    677e:	48 89 75 d0          	mov    %rsi,-0x30(%rbp)
    6782:	48 8b 45 d0          	mov    -0x30(%rbp),%rax
    6786:	66 0f 28 00          	movapd (%rax),%xmm0
    678a:	48 8b 45 d8          	mov    -0x28(%rbp),%rax
    678e:	48 89 45 e8          	mov    %rax,-0x18(%rbp)
    6792:	0f 29 45 f0          	movaps %xmm0,-0x10(%rbp)
    6796:	66 0f 28 45 f0       	movapd -0x10(%rbp),%xmm0
    679b:	48 8b 45 e8          	mov    -0x18(%rbp),%rax
    679f:	0f 11 00             	movups %xmm0,(%rax)
    67a2:	90                   	nop
    67a3:	90                   	nop
    67a4:	5d                   	pop    %rbp
    67a5:	c3                   	retq   

00000000000067a6 <_ZN5Eigen8internal8prefetchIdEEvPKT_>:
    67a6:	f3 0f 1e fa          	endbr64 
    67aa:	55                   	push   %rbp
    67ab:	48 89 e5             	mov    %rsp,%rbp
    67ae:	48 89 7d f8          	mov    %rdi,-0x8(%rbp)
    67b2:	48 8b 45 f8          	mov    -0x8(%rbp),%rax
    67b6:	0f 18 08             	prefetcht0 (%rax)
    67b9:	90                   	nop
    67ba:	5d                   	pop    %rbp
    67bb:	c3                   	retq   

00000000000067bc <_ZN5Eigen8internal6pfirstIDv2_dEENS0_15unpacket_traitsIT_E4typeERKS4_>:
    67bc:	f3 0f 1e fa          	endbr64 
    67c0:	55                   	push   %rbp
    67c1:	48 89 e5             	mov    %rsp,%rbp
    67c4:	48 89 7d e8          	mov    %rdi,-0x18(%rbp)
    67c8:	48 8b 45 e8          	mov    -0x18(%rbp),%rax
    67cc:	66 0f 28 00          	movapd (%rax),%xmm0
    67d0:	0f 29 45 f0          	movaps %xmm0,-0x10(%rbp)
    67d4:	f2 0f 10 45 f0       	movsd  -0x10(%rbp),%xmm0
    67d9:	5d                   	pop    %rbp
    67da:	c3                   	retq   

00000000000067db <_ZN5Eigen8internal11pbroadcast4IDv2_dEEvPKNS0_15unpacket_traitsIT_E4typeERS4_S9_S9_S9_>:
    67db:	f3 0f 1e fa          	endbr64 
    67df:	55                   	push   %rbp
    67e0:	48 89 e5             	mov    %rsp,%rbp
    67e3:	48 81 ec b0 00 00 00 	sub    $0xb0,%rsp
    67ea:	48 89 bd 78 ff ff ff 	mov    %rdi,-0x88(%rbp)
    67f1:	48 89 b5 70 ff ff ff 	mov    %rsi,-0x90(%rbp)
    67f8:	48 89 95 68 ff ff ff 	mov    %rdx,-0x98(%rbp)
    67ff:	48 89 8d 60 ff ff ff 	mov    %rcx,-0xa0(%rbp)
    6806:	4c 89 85 58 ff ff ff 	mov    %r8,-0xa8(%rbp)
    680d:	48 8b 85 78 ff ff ff 	mov    -0x88(%rbp),%rax
    6814:	48 89 c7             	mov    %rax,%rdi
    6817:	e8 e6 fe ff ff       	callq  6702 <_ZN5Eigen8internal5ploadIDv2_dEET_PKNS0_15unpacket_traitsIS3_E4typeE>
    681c:	48 8b 85 68 ff ff ff 	mov    -0x98(%rbp),%rax
    6823:	0f 29 00             	movaps %xmm0,(%rax)
    6826:	48 8b 85 68 ff ff ff 	mov    -0x98(%rbp),%rax
    682d:	66 0f 28 00          	movapd (%rax),%xmm0
    6831:	0f 29 45 f0          	movaps %xmm0,-0x10(%rbp)
    6835:	66 0f 6f 45 f0       	movdqa -0x10(%rbp),%xmm0
    683a:	66 0f 70 c0 44       	pshufd $0x44,%xmm0,%xmm0
    683f:	0f 29 45 e0          	movaps %xmm0,-0x20(%rbp)
    6843:	66 0f 28 45 e0       	movapd -0x20(%rbp),%xmm0
    6848:	48 8b 85 70 ff ff ff 	mov    -0x90(%rbp),%rax
    684f:	0f 29 00             	movaps %xmm0,(%rax)
    6852:	48 8b 85 68 ff ff ff 	mov    -0x98(%rbp),%rax
    6859:	66 0f 28 00          	movapd (%rax),%xmm0
    685d:	0f 29 45 d0          	movaps %xmm0,-0x30(%rbp)
    6861:	66 0f 6f 45 d0       	movdqa -0x30(%rbp),%xmm0
    6866:	66 0f 70 c0 ee       	pshufd $0xee,%xmm0,%xmm0
    686b:	0f 29 45 c0          	movaps %xmm0,-0x40(%rbp)
    686f:	66 0f 28 45 c0       	movapd -0x40(%rbp),%xmm0
    6874:	48 8b 85 68 ff ff ff 	mov    -0x98(%rbp),%rax
    687b:	0f 29 00             	movaps %xmm0,(%rax)
    687e:	48 8b 85 78 ff ff ff 	mov    -0x88(%rbp),%rax
    6885:	48 83 c0 10          	add    $0x10,%rax
    6889:	48 89 c7             	mov    %rax,%rdi
    688c:	e8 71 fe ff ff       	callq  6702 <_ZN5Eigen8internal5ploadIDv2_dEET_PKNS0_15unpacket_traitsIS3_E4typeE>
    6891:	48 8b 85 58 ff ff ff 	mov    -0xa8(%rbp),%rax
    6898:	0f 29 00             	movaps %xmm0,(%rax)
    689b:	48 8b 85 58 ff ff ff 	mov    -0xa8(%rbp),%rax
    68a2:	66 0f 28 00          	movapd (%rax),%xmm0
    68a6:	0f 29 45 b0          	movaps %xmm0,-0x50(%rbp)
    68aa:	66 0f 6f 45 b0       	movdqa -0x50(%rbp),%xmm0
    68af:	66 0f 70 c0 44       	pshufd $0x44,%xmm0,%xmm0
    68b4:	0f 29 45 a0          	movaps %xmm0,-0x60(%rbp)
    68b8:	66 0f 28 45 a0       	movapd -0x60(%rbp),%xmm0
    68bd:	48 8b 85 60 ff ff ff 	mov    -0xa0(%rbp),%rax
    68c4:	0f 29 00             	movaps %xmm0,(%rax)
    68c7:	48 8b 85 58 ff ff ff 	mov    -0xa8(%rbp),%rax
    68ce:	66 0f 28 00          	movapd (%rax),%xmm0
    68d2:	0f 29 45 90          	movaps %xmm0,-0x70(%rbp)
    68d6:	66 0f 6f 45 90       	movdqa -0x70(%rbp),%xmm0
    68db:	66 0f 70 c0 ee       	pshufd $0xee,%xmm0,%xmm0
    68e0:	0f 29 45 80          	movaps %xmm0,-0x80(%rbp)
    68e4:	66 0f 28 45 80       	movapd -0x80(%rbp),%xmm0
    68e9:	48 8b 85 58 ff ff ff 	mov    -0xa8(%rbp),%rax
    68f0:	0f 29 00             	movaps %xmm0,(%rax)
    68f3:	90                   	nop
    68f4:	c9                   	leaveq 
    68f5:	c3                   	retq   

00000000000068f6 <_ZN5Eigen8internal27manage_caching_sizes_helperEll>:
    68f6:	f3 0f 1e fa          	endbr64 
    68fa:	55                   	push   %rbp
    68fb:	48 89 e5             	mov    %rsp,%rbp
    68fe:	48 89 7d f8          	mov    %rdi,-0x8(%rbp)
    6902:	48 89 75 f0          	mov    %rsi,-0x10(%rbp)
    6906:	48 83 7d f8 00       	cmpq   $0x0,-0x8(%rbp)
    690b:	7f 06                	jg     6913 <_ZN5Eigen8internal27manage_caching_sizes_helperEll+0x1d>
    690d:	48 8b 45 f0          	mov    -0x10(%rbp),%rax
    6911:	eb 04                	jmp    6917 <_ZN5Eigen8internal27manage_caching_sizes_helperEll+0x21>
    6913:	48 8b 45 f8          	mov    -0x8(%rbp),%rax
    6917:	5d                   	pop    %rbp
    6918:	c3                   	retq   
    6919:	90                   	nop

000000000000691a <_ZN5Eigen8internal10CacheSizesC1Ev>:
    691a:	f3 0f 1e fa          	endbr64 
    691e:	55                   	push   %rbp
    691f:	48 89 e5             	mov    %rsp,%rbp
    6922:	48 83 ec 30          	sub    $0x30,%rsp
    6926:	48 89 7d d8          	mov    %rdi,-0x28(%rbp)
    692a:	64 48 8b 04 25 28 00 	mov    %fs:0x28,%rax
    6931:	00 00 
    6933:	48 89 45 f8          	mov    %rax,-0x8(%rbp)
    6937:	31 c0                	xor    %eax,%eax
    6939:	48 8b 45 d8          	mov    -0x28(%rbp),%rax
    693d:	48 c7 00 ff ff ff ff 	movq   $0xffffffffffffffff,(%rax)
    6944:	48 8b 45 d8          	mov    -0x28(%rbp),%rax
    6948:	48 c7 40 08 ff ff ff 	movq   $0xffffffffffffffff,0x8(%rax)
    694f:	ff 
    6950:	48 8b 45 d8          	mov    -0x28(%rbp),%rax
    6954:	48 c7 40 10 ff ff ff 	movq   $0xffffffffffffffff,0x10(%rax)
    695b:	ff 
    695c:	48 8d 55 f4          	lea    -0xc(%rbp),%rdx
    6960:	48 8d 4d f0          	lea    -0x10(%rbp),%rcx
    6964:	48 8d 45 ec          	lea    -0x14(%rbp),%rax
    6968:	48 89 ce             	mov    %rcx,%rsi
    696b:	48 89 c7             	mov    %rax,%rdi
    696e:	e8 5a fb ff ff       	callq  64cd <_ZN5Eigen8internal15queryCacheSizesERiS1_S1_>
    6973:	8b 45 ec             	mov    -0x14(%rbp),%eax
    6976:	48 98                	cltq   
    6978:	be 00 80 00 00       	mov    $0x8000,%esi
    697d:	48 89 c7             	mov    %rax,%rdi
    6980:	e8 71 ff ff ff       	callq  68f6 <_ZN5Eigen8internal27manage_caching_sizes_helperEll>
    6985:	48 8b 55 d8          	mov    -0x28(%rbp),%rdx
    6989:	48 89 02             	mov    %rax,(%rdx)
    698c:	8b 45 f0             	mov    -0x10(%rbp),%eax
    698f:	48 98                	cltq   
    6991:	be 00 00 04 00       	mov    $0x40000,%esi
    6996:	48 89 c7             	mov    %rax,%rdi
    6999:	e8 58 ff ff ff       	callq  68f6 <_ZN5Eigen8internal27manage_caching_sizes_helperEll>
    699e:	48 8b 55 d8          	mov    -0x28(%rbp),%rdx
    69a2:	48 89 42 08          	mov    %rax,0x8(%rdx)
    69a6:	8b 45 f4             	mov    -0xc(%rbp),%eax
    69a9:	48 98                	cltq   
    69ab:	be 00 00 20 00       	mov    $0x200000,%esi
    69b0:	48 89 c7             	mov    %rax,%rdi
    69b3:	e8 3e ff ff ff       	callq  68f6 <_ZN5Eigen8internal27manage_caching_sizes_helperEll>
    69b8:	48 8b 55 d8          	mov    -0x28(%rbp),%rdx
    69bc:	48 89 42 10          	mov    %rax,0x10(%rdx)
    69c0:	90                   	nop
    69c1:	48 8b 45 f8          	mov    -0x8(%rbp),%rax
    69c5:	64 48 33 04 25 28 00 	xor    %fs:0x28,%rax
    69cc:	00 00 
    69ce:	74 05                	je     69d5 <_ZN5Eigen8internal10CacheSizesC1Ev+0xbb>
    69d0:	e8 db cc ff ff       	callq  36b0 <__stack_chk_fail@plt>
    69d5:	c9                   	leaveq 
    69d6:	c3                   	retq   

00000000000069d7 <_ZN5Eigen8internal20manage_caching_sizesENS_6ActionEPlS2_S2_>:
    69d7:	f3 0f 1e fa          	endbr64 
    69db:	55                   	push   %rbp
    69dc:	48 89 e5             	mov    %rsp,%rbp
    69df:	48 83 ec 20          	sub    $0x20,%rsp
    69e3:	89 7d fc             	mov    %edi,-0x4(%rbp)
    69e6:	48 89 75 f0          	mov    %rsi,-0x10(%rbp)
    69ea:	48 89 55 e8          	mov    %rdx,-0x18(%rbp)
    69ee:	48 89 4d e0          	mov    %rcx,-0x20(%rbp)
    69f2:	0f b6 05 0f f9 04 00 	movzbl 0x4f90f(%rip),%eax        # 56308 <_ZGVZN5Eigen8internal20manage_caching_sizesENS_6ActionEPlS2_S2_E12m_cacheSizes>
    69f9:	84 c0                	test   %al,%al
    69fb:	0f 94 c0             	sete   %al
    69fe:	84 c0                	test   %al,%al
    6a00:	74 2d                	je     6a2f <_ZN5Eigen8internal20manage_caching_sizesENS_6ActionEPlS2_S2_+0x58>
    6a02:	48 8d 3d ff f8 04 00 	lea    0x4f8ff(%rip),%rdi        # 56308 <_ZGVZN5Eigen8internal20manage_caching_sizesENS_6ActionEPlS2_S2_E12m_cacheSizes>
    6a09:	e8 52 ce ff ff       	callq  3860 <__cxa_guard_acquire@plt>
    6a0e:	85 c0                	test   %eax,%eax
    6a10:	0f 95 c0             	setne  %al
    6a13:	84 c0                	test   %al,%al
    6a15:	74 18                	je     6a2f <_ZN5Eigen8internal20manage_caching_sizesENS_6ActionEPlS2_S2_+0x58>
    6a17:	48 8d 3d d2 f8 04 00 	lea    0x4f8d2(%rip),%rdi        # 562f0 <_ZZN5Eigen8internal20manage_caching_sizesENS_6ActionEPlS2_S2_E12m_cacheSizes>
    6a1e:	e8 f7 fe ff ff       	callq  691a <_ZN5Eigen8internal10CacheSizesC1Ev>
    6a23:	48 8d 3d de f8 04 00 	lea    0x4f8de(%rip),%rdi        # 56308 <_ZGVZN5Eigen8internal20manage_caching_sizesENS_6ActionEPlS2_S2_E12m_cacheSizes>
    6a2a:	e8 91 cb ff ff       	callq  35c0 <__cxa_guard_release@plt>
    6a2f:	83 7d fc 01          	cmpl   $0x1,-0x4(%rbp)
    6a33:	75 2c                	jne    6a61 <_ZN5Eigen8internal20manage_caching_sizesENS_6ActionEPlS2_S2_+0x8a>
    6a35:	48 8b 45 f0          	mov    -0x10(%rbp),%rax
    6a39:	48 8b 00             	mov    (%rax),%rax
    6a3c:	48 89 05 ad f8 04 00 	mov    %rax,0x4f8ad(%rip)        # 562f0 <_ZZN5Eigen8internal20manage_caching_sizesENS_6ActionEPlS2_S2_E12m_cacheSizes>
    6a43:	48 8b 45 e8          	mov    -0x18(%rbp),%rax
    6a47:	48 8b 00             	mov    (%rax),%rax
    6a4a:	48 89 05 a7 f8 04 00 	mov    %rax,0x4f8a7(%rip)        # 562f8 <_ZZN5Eigen8internal20manage_caching_sizesENS_6ActionEPlS2_S2_E12m_cacheSizes+0x8>
    6a51:	48 8b 45 e0          	mov    -0x20(%rbp),%rax
    6a55:	48 8b 00             	mov    (%rax),%rax
    6a58:	48 89 05 a1 f8 04 00 	mov    %rax,0x4f8a1(%rip)        # 56300 <_ZZN5Eigen8internal20manage_caching_sizesENS_6ActionEPlS2_S2_E12m_cacheSizes+0x10>
    6a5f:	eb 30                	jmp    6a91 <_ZN5Eigen8internal20manage_caching_sizesENS_6ActionEPlS2_S2_+0xba>
    6a61:	83 7d fc 00          	cmpl   $0x0,-0x4(%rbp)
    6a65:	75 2a                	jne    6a91 <_ZN5Eigen8internal20manage_caching_sizesENS_6ActionEPlS2_S2_+0xba>
    6a67:	48 8b 15 82 f8 04 00 	mov    0x4f882(%rip),%rdx        # 562f0 <_ZZN5Eigen8internal20manage_caching_sizesENS_6ActionEPlS2_S2_E12m_cacheSizes>
    6a6e:	48 8b 45 f0          	mov    -0x10(%rbp),%rax
    6a72:	48 89 10             	mov    %rdx,(%rax)
    6a75:	48 8b 15 7c f8 04 00 	mov    0x4f87c(%rip),%rdx        # 562f8 <_ZZN5Eigen8internal20manage_caching_sizesENS_6ActionEPlS2_S2_E12m_cacheSizes+0x8>
    6a7c:	48 8b 45 e8          	mov    -0x18(%rbp),%rax
    6a80:	48 89 10             	mov    %rdx,(%rax)
    6a83:	48 8b 15 76 f8 04 00 	mov    0x4f876(%rip),%rdx        # 56300 <_ZZN5Eigen8internal20manage_caching_sizesENS_6ActionEPlS2_S2_E12m_cacheSizes+0x10>
    6a8a:	48 8b 45 e0          	mov    -0x20(%rbp),%rax
    6a8e:	48 89 10             	mov    %rdx,(%rax)
    6a91:	90                   	nop
    6a92:	c9                   	leaveq 
    6a93:	c3                   	retq   

0000000000006a94 <_ZNSt18_Rb_tree_node_base10_S_minimumEPS_>:
    6a94:	f3 0f 1e fa          	endbr64 
    6a98:	55                   	push   %rbp
    6a99:	48 89 e5             	mov    %rsp,%rbp
    6a9c:	48 89 7d f8          	mov    %rdi,-0x8(%rbp)
    6aa0:	48 8b 45 f8          	mov    -0x8(%rbp),%rax
    6aa4:	48 8b 40 10          	mov    0x10(%rax),%rax
    6aa8:	48 85 c0             	test   %rax,%rax
    6aab:	74 0e                	je     6abb <_ZNSt18_Rb_tree_node_base10_S_minimumEPS_+0x27>
    6aad:	48 8b 45 f8          	mov    -0x8(%rbp),%rax
    6ab1:	48 8b 40 10          	mov    0x10(%rax),%rax
    6ab5:	48 89 45 f8          	mov    %rax,-0x8(%rbp)
    6ab9:	eb e5                	jmp    6aa0 <_ZNSt18_Rb_tree_node_base10_S_minimumEPS_+0xc>
    6abb:	48 8b 45 f8          	mov    -0x8(%rbp),%rax
    6abf:	5d                   	pop    %rbp
    6ac0:	c3                   	retq   

0000000000006ac1 <_ZNSt18_Rb_tree_node_base10_S_maximumEPS_>:
    6ac1:	f3 0f 1e fa          	endbr64 
    6ac5:	55                   	push   %rbp
    6ac6:	48 89 e5             	mov    %rsp,%rbp
    6ac9:	48 89 7d f8          	mov    %rdi,-0x8(%rbp)
    6acd:	48 8b 45 f8          	mov    -0x8(%rbp),%rax
    6ad1:	48 8b 40 18          	mov    0x18(%rax),%rax
    6ad5:	48 85 c0             	test   %rax,%rax
    6ad8:	74 0e                	je     6ae8 <_ZNSt18_Rb_tree_node_base10_S_maximumEPS_+0x27>
    6ada:	48 8b 45 f8          	mov    -0x8(%rbp),%rax
    6ade:	48 8b 40 18          	mov    0x18(%rax),%rax
    6ae2:	48 89 45 f8          	mov    %rax,-0x8(%rbp)
    6ae6:	eb e5                	jmp    6acd <_ZNSt18_Rb_tree_node_base10_S_maximumEPS_+0xc>
    6ae8:	48 8b 45 f8          	mov    -0x8(%rbp),%rax
    6aec:	5d                   	pop    %rbp
    6aed:	c3                   	retq   

0000000000006aee <_ZNSt15_Rb_tree_headerC1Ev>:
    6aee:	f3 0f 1e fa          	endbr64 
    6af2:	55                   	push   %rbp
    6af3:	48 89 e5             	mov    %rsp,%rbp
    6af6:	48 83 ec 10          	sub    $0x10,%rsp
    6afa:	48 89 7d f8          	mov    %rdi,-0x8(%rbp)
    6afe:	48 8b 45 f8          	mov    -0x8(%rbp),%rax
    6b02:	c7 00 00 00 00 00    	movl   $0x0,(%rax)
    6b08:	48 8b 45 f8          	mov    -0x8(%rbp),%rax
    6b0c:	48 89 c7             	mov    %rax,%rdi
    6b0f:	e8 04 00 00 00       	callq  6b18 <_ZNSt15_Rb_tree_header8_M_resetEv>
    6b14:	90                   	nop
    6b15:	c9                   	leaveq 
    6b16:	c3                   	retq   
    6b17:	90                   	nop

0000000000006b18 <_ZNSt15_Rb_tree_header8_M_resetEv>:
    6b18:	f3 0f 1e fa          	endbr64 
    6b1c:	55                   	push   %rbp
    6b1d:	48 89 e5             	mov    %rsp,%rbp
    6b20:	48 89 7d f8          	mov    %rdi,-0x8(%rbp)
    6b24:	48 8b 45 f8          	mov    -0x8(%rbp),%rax
    6b28:	48 c7 40 08 00 00 00 	movq   $0x0,0x8(%rax)
    6b2f:	00 
    6b30:	48 8b 55 f8          	mov    -0x8(%rbp),%rdx
    6b34:	48 8b 45 f8          	mov    -0x8(%rbp),%rax
    6b38:	48 89 50 10          	mov    %rdx,0x10(%rax)
    6b3c:	48 8b 55 f8          	mov    -0x8(%rbp),%rdx
    6b40:	48 8b 45 f8          	mov    -0x8(%rbp),%rax
    6b44:	48 89 50 18          	mov    %rdx,0x18(%rax)
    6b48:	48 8b 45 f8          	mov    -0x8(%rbp),%rax
    6b4c:	48 c7 40 20 00 00 00 	movq   $0x0,0x20(%rax)
    6b53:	00 
    6b54:	90                   	nop
    6b55:	5d                   	pop    %rbp
    6b56:	c3                   	retq   
    6b57:	90                   	nop

0000000000006b58 <_ZNSt12_Vector_baseINSt7__cxx1112basic_stringIcSt11char_traitsIcESaIcEEESaIS5_EE12_Vector_implD1Ev>:
    6b58:	f3 0f 1e fa          	endbr64 
    6b5c:	55                   	push   %rbp
    6b5d:	48 89 e5             	mov    %rsp,%rbp
    6b60:	48 83 ec 10          	sub    $0x10,%rsp
    6b64:	48 89 7d f8          	mov    %rdi,-0x8(%rbp)
    6b68:	48 8b 45 f8          	mov    -0x8(%rbp),%rax
    6b6c:	48 89 c7             	mov    %rax,%rdi
    6b6f:	e8 38 06 00 00       	callq  71ac <_ZNSaINSt7__cxx1112basic_stringIcSt11char_traitsIcESaIcEEEED1Ev>
    6b74:	90                   	nop
    6b75:	c9                   	leaveq 
    6b76:	c3                   	retq   
    6b77:	90                   	nop

0000000000006b78 <_ZNSt12_Vector_baseINSt7__cxx1112basic_stringIcSt11char_traitsIcESaIcEEESaIS5_EEC1Ev>:
    6b78:	f3 0f 1e fa          	endbr64 
    6b7c:	55                   	push   %rbp
    6b7d:	48 89 e5             	mov    %rsp,%rbp
    6b80:	48 83 ec 10          	sub    $0x10,%rsp
    6b84:	48 89 7d f8          	mov    %rdi,-0x8(%rbp)
    6b88:	48 8b 45 f8          	mov    -0x8(%rbp),%rax
    6b8c:	48 89 c7             	mov    %rax,%rdi
    6b8f:	e8 ec 05 00 00       	callq  7180 <_ZNSt12_Vector_baseINSt7__cxx1112basic_stringIcSt11char_traitsIcESaIcEEESaIS5_EE12_Vector_implC1Ev>
    6b94:	90                   	nop
    6b95:	c9                   	leaveq 
    6b96:	c3                   	retq   
    6b97:	90                   	nop

0000000000006b98 <_ZNSt6vectorINSt7__cxx1112basic_stringIcSt11char_traitsIcESaIcEEESaIS5_EEC1Ev>:
    6b98:	f3 0f 1e fa          	endbr64 
    6b9c:	55                   	push   %rbp
    6b9d:	48 89 e5             	mov    %rsp,%rbp
    6ba0:	48 83 ec 10          	sub    $0x10,%rsp
    6ba4:	48 89 7d f8          	mov    %rdi,-0x8(%rbp)
    6ba8:	48 8b 45 f8          	mov    -0x8(%rbp),%rax
    6bac:	48 89 c7             	mov    %rax,%rdi
    6baf:	e8 c4 ff ff ff       	callq  6b78 <_ZNSt12_Vector_baseINSt7__cxx1112basic_stringIcSt11char_traitsIcESaIcEEESaIS5_EEC1Ev>
    6bb4:	90                   	nop
    6bb5:	c9                   	leaveq 
    6bb6:	c3                   	retq   
    6bb7:	90                   	nop

0000000000006bb8 <_ZNSt12_Vector_baseIP4TeamSaIS1_EE12_Vector_implD1Ev>:
    6bb8:	f3 0f 1e fa          	endbr64 
    6bbc:	55                   	push   %rbp
    6bbd:	48 89 e5             	mov    %rsp,%rbp
    6bc0:	48 83 ec 10          	sub    $0x10,%rsp
    6bc4:	48 89 7d f8          	mov    %rdi,-0x8(%rbp)
    6bc8:	48 8b 45 f8          	mov    -0x8(%rbp),%rax
    6bcc:	48 89 c7             	mov    %rax,%rdi
    6bcf:	e8 76 06 00 00       	callq  724a <_ZNSaIP4TeamED1Ev>
    6bd4:	90                   	nop
    6bd5:	c9                   	leaveq 
    6bd6:	c3                   	retq   
    6bd7:	90                   	nop

0000000000006bd8 <_ZNSt12_Vector_baseIP4TeamSaIS1_EEC1Ev>:
    6bd8:	f3 0f 1e fa          	endbr64 
    6bdc:	55                   	push   %rbp
    6bdd:	48 89 e5             	mov    %rsp,%rbp
    6be0:	48 83 ec 10          	sub    $0x10,%rsp
    6be4:	48 89 7d f8          	mov    %rdi,-0x8(%rbp)
    6be8:	48 8b 45 f8          	mov    -0x8(%rbp),%rax
    6bec:	48 89 c7             	mov    %rax,%rdi
    6bef:	e8 2a 06 00 00       	callq  721e <_ZNSt12_Vector_baseIP4TeamSaIS1_EE12_Vector_implC1Ev>
    6bf4:	90                   	nop
    6bf5:	c9                   	leaveq 
    6bf6:	c3                   	retq   
    6bf7:	90                   	nop

0000000000006bf8 <_ZNSt6vectorIP4TeamSaIS1_EEC1Ev>:
    6bf8:	f3 0f 1e fa          	endbr64 
    6bfc:	55                   	push   %rbp
    6bfd:	48 89 e5             	mov    %rsp,%rbp
    6c00:	48 83 ec 10          	sub    $0x10,%rsp
    6c04:	48 89 7d f8          	mov    %rdi,-0x8(%rbp)
    6c08:	48 8b 45 f8          	mov    -0x8(%rbp),%rax
    6c0c:	48 89 c7             	mov    %rax,%rdi
    6c0f:	e8 c4 ff ff ff       	callq  6bd8 <_ZNSt12_Vector_baseIP4TeamSaIS1_EEC1Ev>
    6c14:	90                   	nop
    6c15:	c9                   	leaveq 
    6c16:	c3                   	retq   
    6c17:	90                   	nop

0000000000006c18 <_ZNSt12_Vector_baseI4TeamSaIS0_EE12_Vector_implD1Ev>:
    6c18:	f3 0f 1e fa          	endbr64 
    6c1c:	55                   	push   %rbp
    6c1d:	48 89 e5             	mov    %rsp,%rbp
    6c20:	48 83 ec 10          	sub    $0x10,%rsp
    6c24:	48 89 7d f8          	mov    %rdi,-0x8(%rbp)
    6c28:	48 8b 45 f8          	mov    -0x8(%rbp),%rax
    6c2c:	48 89 c7             	mov    %rax,%rdi
    6c2f:	e8 b4 06 00 00       	callq  72e8 <_ZNSaI4TeamED1Ev>
    6c34:	90                   	nop
    6c35:	c9                   	leaveq 
    6c36:	c3                   	retq   
    6c37:	90                   	nop

0000000000006c38 <_ZNSt12_Vector_baseI4TeamSaIS0_EEC1Ev>:
    6c38:	f3 0f 1e fa          	endbr64 
    6c3c:	55                   	push   %rbp
    6c3d:	48 89 e5             	mov    %rsp,%rbp
    6c40:	48 83 ec 10          	sub    $0x10,%rsp
    6c44:	48 89 7d f8          	mov    %rdi,-0x8(%rbp)
    6c48:	48 8b 45 f8          	mov    -0x8(%rbp),%rax
    6c4c:	48 89 c7             	mov    %rax,%rdi
    6c4f:	e8 68 06 00 00       	callq  72bc <_ZNSt12_Vector_baseI4TeamSaIS0_EE12_Vector_implC1Ev>
    6c54:	90                   	nop
    6c55:	c9                   	leaveq 
    6c56:	c3                   	retq   
    6c57:	90                   	nop

0000000000006c58 <_ZNSt6vectorI4TeamSaIS0_EEC1Ev>:
    6c58:	f3 0f 1e fa          	endbr64 
    6c5c:	55                   	push   %rbp
    6c5d:	48 89 e5             	mov    %rsp,%rbp
    6c60:	48 83 ec 10          	sub    $0x10,%rsp
    6c64:	48 89 7d f8          	mov    %rdi,-0x8(%rbp)
    6c68:	48 8b 45 f8          	mov    -0x8(%rbp),%rax
    6c6c:	48 89 c7             	mov    %rax,%rdi
    6c6f:	e8 c4 ff ff ff       	callq  6c38 <_ZNSt12_Vector_baseI4TeamSaIS0_EEC1Ev>
    6c74:	90                   	nop
    6c75:	c9                   	leaveq 
    6c76:	c3                   	retq   
    6c77:	90                   	nop

0000000000006c78 <_ZNSt12_Vector_baseIiSaIiEE12_Vector_implD1Ev>:
    6c78:	f3 0f 1e fa          	endbr64 
    6c7c:	55                   	push   %rbp
    6c7d:	48 89 e5             	mov    %rsp,%rbp
    6c80:	48 83 ec 10          	sub    $0x10,%rsp
    6c84:	48 89 7d f8          	mov    %rdi,-0x8(%rbp)
    6c88:	48 8b 45 f8          	mov    -0x8(%rbp),%rax
    6c8c:	48 89 c7             	mov    %rax,%rdi
    6c8f:	e8 02 07 00 00       	callq  7396 <_ZNSaIiED1Ev>
    6c94:	90                   	nop
    6c95:	c9                   	leaveq 
    6c96:	c3                   	retq   
    6c97:	90                   	nop

0000000000006c98 <_ZNSt12_Vector_baseIiSaIiEEC1Ev>:
    6c98:	f3 0f 1e fa          	endbr64 
    6c9c:	55                   	push   %rbp
    6c9d:	48 89 e5             	mov    %rsp,%rbp
    6ca0:	48 83 ec 10          	sub    $0x10,%rsp
    6ca4:	48 89 7d f8          	mov    %rdi,-0x8(%rbp)
    6ca8:	48 8b 45 f8          	mov    -0x8(%rbp),%rax
    6cac:	48 89 c7             	mov    %rax,%rdi
    6caf:	e8 b6 06 00 00       	callq  736a <_ZNSt12_Vector_baseIiSaIiEE12_Vector_implC1Ev>
    6cb4:	90                   	nop
    6cb5:	c9                   	leaveq 
    6cb6:	c3                   	retq   
    6cb7:	90                   	nop

0000000000006cb8 <_ZNSt6vectorIiSaIiEEC1Ev>:
    6cb8:	f3 0f 1e fa          	endbr64 
    6cbc:	55                   	push   %rbp
    6cbd:	48 89 e5             	mov    %rsp,%rbp
    6cc0:	48 83 ec 10          	sub    $0x10,%rsp
    6cc4:	48 89 7d f8          	mov    %rdi,-0x8(%rbp)
    6cc8:	48 8b 45 f8          	mov    -0x8(%rbp),%rax
    6ccc:	48 89 c7             	mov    %rax,%rdi
    6ccf:	e8 c4 ff ff ff       	callq  6c98 <_ZNSt12_Vector_baseIiSaIiEEC1Ev>
    6cd4:	90                   	nop
    6cd5:	c9                   	leaveq 
    6cd6:	c3                   	retq   
    6cd7:	90                   	nop

0000000000006cd8 <_ZNSt8_Rb_treeIiSt4pairIKiP4TeamESt10_Select1stIS4_ESt4lessIiESaIS4_EE13_Rb_tree_implIS8_Lb1EED1Ev>:
    6cd8:	f3 0f 1e fa          	endbr64 
    6cdc:	55                   	push   %rbp
    6cdd:	48 89 e5             	mov    %rsp,%rbp
    6ce0:	48 83 ec 10          	sub    $0x10,%rsp
    6ce4:	48 89 7d f8          	mov    %rdi,-0x8(%rbp)
    6ce8:	48 8b 45 f8          	mov    -0x8(%rbp),%rax
    6cec:	48 89 c7             	mov    %rax,%rdi
    6cef:	e8 50 07 00 00       	callq  7444 <_ZNSaISt13_Rb_tree_nodeISt4pairIKiP4TeamEEED1Ev>
    6cf4:	90                   	nop
    6cf5:	c9                   	leaveq 
    6cf6:	c3                   	retq   
    6cf7:	90                   	nop

0000000000006cf8 <_ZNSt8_Rb_treeIiSt4pairIKiP4TeamESt10_Select1stIS4_ESt4lessIiESaIS4_EEC1Ev>:
    6cf8:	f3 0f 1e fa          	endbr64 
    6cfc:	55                   	push   %rbp
    6cfd:	48 89 e5             	mov    %rsp,%rbp
    6d00:	48 83 ec 10          	sub    $0x10,%rsp
    6d04:	48 89 7d f8          	mov    %rdi,-0x8(%rbp)
    6d08:	48 8b 45 f8          	mov    -0x8(%rbp),%rax
    6d0c:	48 89 c7             	mov    %rax,%rdi
    6d0f:	e8 f4 06 00 00       	callq  7408 <_ZNSt8_Rb_treeIiSt4pairIKiP4TeamESt10_Select1stIS4_ESt4lessIiESaIS4_EE13_Rb_tree_implIS8_Lb1EEC1Ev>
    6d14:	90                   	nop
    6d15:	c9                   	leaveq 
    6d16:	c3                   	retq   
    6d17:	90                   	nop

0000000000006d18 <_ZNSt3mapIiP4TeamSt4lessIiESaISt4pairIKiS1_EEEC1Ev>:
    6d18:	f3 0f 1e fa          	endbr64 
    6d1c:	55                   	push   %rbp
    6d1d:	48 89 e5             	mov    %rsp,%rbp
    6d20:	48 83 ec 10          	sub    $0x10,%rsp
    6d24:	48 89 7d f8          	mov    %rdi,-0x8(%rbp)
    6d28:	48 8b 45 f8          	mov    -0x8(%rbp),%rax
    6d2c:	48 89 c7             	mov    %rax,%rdi
    6d2f:	e8 c4 ff ff ff       	callq  6cf8 <_ZNSt8_Rb_treeIiSt4pairIKiP4TeamESt10_Select1stIS4_ESt4lessIiESaIS4_EEC1Ev>
    6d34:	90                   	nop
    6d35:	c9                   	leaveq 
    6d36:	c3                   	retq   
    6d37:	90                   	nop

0000000000006d38 <_ZN5Eigen15PlainObjectBaseINS_6MatrixIdLin1ELin1ELi0ELin1ELin1EEEED1Ev>:
    6d38:	f3 0f 1e fa          	endbr64 
    6d3c:	55                   	push   %rbp
    6d3d:	48 89 e5             	mov    %rsp,%rbp
    6d40:	48 83 ec 10          	sub    $0x10,%rsp
    6d44:	48 89 7d f8          	mov    %rdi,-0x8(%rbp)
    6d48:	48 8b 45 f8          	mov    -0x8(%rbp),%rax
    6d4c:	48 89 c7             	mov    %rax,%rdi
    6d4f:	e8 fe 07 00 00       	callq  7552 <_ZN5Eigen12DenseStorageIdLin1ELin1ELin1ELi0EED1Ev>
    6d54:	90                   	nop
    6d55:	c9                   	leaveq 
    6d56:	c3                   	retq   
    6d57:	90                   	nop

0000000000006d58 <_ZN5Eigen6MatrixIdLin1ELin1ELi0ELin1ELin1EED1Ev>:
    6d58:	f3 0f 1e fa          	endbr64 
    6d5c:	55                   	push   %rbp
    6d5d:	48 89 e5             	mov    %rsp,%rbp
    6d60:	48 83 ec 10          	sub    $0x10,%rsp
    6d64:	48 89 7d f8          	mov    %rdi,-0x8(%rbp)
    6d68:	48 8b 45 f8          	mov    -0x8(%rbp),%rax
    6d6c:	48 89 c7             	mov    %rax,%rdi
    6d6f:	e8 c4 ff ff ff       	callq  6d38 <_ZN5Eigen15PlainObjectBaseINS_6MatrixIdLin1ELin1ELi0ELin1ELin1EEEED1Ev>
    6d74:	90                   	nop
    6d75:	c9                   	leaveq 
    6d76:	c3                   	retq   
    6d77:	90                   	nop

0000000000006d78 <_ZN5Eigen15PlainObjectBaseINS_6MatrixIiLin1ELi1ELi0ELin1ELi1EEEED1Ev>:
    6d78:	f3 0f 1e fa          	endbr64 
    6d7c:	55                   	push   %rbp
    6d7d:	48 89 e5             	mov    %rsp,%rbp
    6d80:	48 83 ec 10          	sub    $0x10,%rsp
    6d84:	48 89 7d f8          	mov    %rdi,-0x8(%rbp)
    6d88:	48 8b 45 f8          	mov    -0x8(%rbp),%rax
    6d8c:	48 89 c7             	mov    %rax,%rdi
    6d8f:	e8 fa 07 00 00       	callq  758e <_ZN5Eigen12DenseStorageIiLin1ELin1ELi1ELi0EED1Ev>
    6d94:	90                   	nop
    6d95:	c9                   	leaveq 
    6d96:	c3                   	retq   
    6d97:	90                   	nop

0000000000006d98 <_ZN5Eigen6MatrixIiLin1ELi1ELi0ELin1ELi1EED1Ev>:
    6d98:	f3 0f 1e fa          	endbr64 
    6d9c:	55                   	push   %rbp
    6d9d:	48 89 e5             	mov    %rsp,%rbp
    6da0:	48 83 ec 10          	sub    $0x10,%rsp
    6da4:	48 89 7d f8          	mov    %rdi,-0x8(%rbp)
    6da8:	48 8b 45 f8          	mov    -0x8(%rbp),%rax
    6dac:	48 89 c7             	mov    %rax,%rdi
    6daf:	e8 c4 ff ff ff       	callq  6d78 <_ZN5Eigen15PlainObjectBaseINS_6MatrixIiLin1ELi1ELi0ELin1ELi1EEEED1Ev>
    6db4:	90                   	nop
    6db5:	c9                   	leaveq 
    6db6:	c3                   	retq   
    6db7:	90                   	nop

0000000000006db8 <_ZN5Eigen17PermutationMatrixILin1ELin1EiED1Ev>:
    6db8:	f3 0f 1e fa          	endbr64 
    6dbc:	55                   	push   %rbp
    6dbd:	48 89 e5             	mov    %rsp,%rbp
    6dc0:	48 83 ec 10          	sub    $0x10,%rsp
    6dc4:	48 89 7d f8          	mov    %rdi,-0x8(%rbp)
    6dc8:	48 8b 45 f8          	mov    -0x8(%rbp),%rax
    6dcc:	48 89 c7             	mov    %rax,%rdi
    6dcf:	e8 c4 ff ff ff       	callq  6d98 <_ZN5Eigen6MatrixIiLin1ELi1ELi0ELin1ELi1EED1Ev>
    6dd4:	90                   	nop
    6dd5:	c9                   	leaveq 
    6dd6:	c3                   	retq   
    6dd7:	90                   	nop

0000000000006dd8 <_ZN5Eigen14TranspositionsILin1ELin1EiED1Ev>:
    6dd8:	f3 0f 1e fa          	endbr64 
    6ddc:	55                   	push   %rbp
    6ddd:	48 89 e5             	mov    %rsp,%rbp
    6de0:	48 83 ec 10          	sub    $0x10,%rsp
    6de4:	48 89 7d f8          	mov    %rdi,-0x8(%rbp)
    6de8:	48 8b 45 f8          	mov    -0x8(%rbp),%rax
    6dec:	48 89 c7             	mov    %rax,%rdi
    6def:	e8 a4 ff ff ff       	callq  6d98 <_ZN5Eigen6MatrixIiLin1ELi1ELi0ELin1ELi1EED1Ev>
    6df4:	90                   	nop
    6df5:	c9                   	leaveq 
    6df6:	c3                   	retq   
    6df7:	90                   	nop

0000000000006df8 <_ZN5Eigen12PartialPivLUINS_6MatrixIdLin1ELin1ELi0ELin1ELin1EEEED1Ev>:
    6df8:	f3 0f 1e fa          	endbr64 
    6dfc:	55                   	push   %rbp
    6dfd:	48 89 e5             	mov    %rsp,%rbp
    6e00:	48 83 ec 10          	sub    $0x10,%rsp
    6e04:	48 89 7d f8          	mov    %rdi,-0x8(%rbp)
    6e08:	48 8b 45 f8          	mov    -0x8(%rbp),%rax
    6e0c:	48 83 c0 28          	add    $0x28,%rax
    6e10:	48 89 c7             	mov    %rax,%rdi
    6e13:	e8 c0 ff ff ff       	callq  6dd8 <_ZN5Eigen14TranspositionsILin1ELin1EiED1Ev>
    6e18:	48 8b 45 f8          	mov    -0x8(%rbp),%rax
    6e1c:	48 83 c0 18          	add    $0x18,%rax
    6e20:	48 89 c7             	mov    %rax,%rdi
    6e23:	e8 90 ff ff ff       	callq  6db8 <_ZN5Eigen17PermutationMatrixILin1ELin1EiED1Ev>
    6e28:	48 8b 45 f8          	mov    -0x8(%rbp),%rax
    6e2c:	48 89 c7             	mov    %rax,%rdi
    6e2f:	e8 24 ff ff ff       	callq  6d58 <_ZN5Eigen6MatrixIdLin1ELin1ELi0ELin1ELin1EED1Ev>
    6e34:	48 8b 45 f8          	mov    -0x8(%rbp),%rax
    6e38:	48 89 c7             	mov    %rax,%rdi
    6e3b:	e8 02 07 00 00       	callq  7542 <_ZN5Eigen10SolverBaseINS_12PartialPivLUINS_6MatrixIdLin1ELin1ELi0ELin1ELin1EEEEEED1Ev>
    6e40:	90                   	nop
    6e41:	c9                   	leaveq 
    6e42:	c3                   	retq   
    6e43:	90                   	nop

0000000000006e44 <_ZN4GameD1Ev>:
    6e44:	f3 0f 1e fa          	endbr64 
    6e48:	55                   	push   %rbp
    6e49:	48 89 e5             	mov    %rsp,%rbp
    6e4c:	48 83 ec 10          	sub    $0x10,%rsp
    6e50:	48 89 7d f8          	mov    %rdi,-0x8(%rbp)
    6e54:	48 8b 45 f8          	mov    -0x8(%rbp),%rax
    6e58:	48 83 c0 08          	add    $0x8,%rax
    6e5c:	48 89 c7             	mov    %rax,%rdi
    6e5f:	e8 72 10 00 00       	callq  7ed6 <_ZNSt6vectorIP4TeamSaIS1_EED1Ev>
    6e64:	90                   	nop
    6e65:	c9                   	leaveq 
    6e66:	c3                   	retq   
    6e67:	90                   	nop

0000000000006e68 <_ZNSt3mapIiP4TeamSt4lessIiESaISt4pairIKiS1_EEEC1ERKS8_>:
    6e68:	f3 0f 1e fa          	endbr64 
    6e6c:	55                   	push   %rbp
    6e6d:	48 89 e5             	mov    %rsp,%rbp
    6e70:	48 83 ec 10          	sub    $0x10,%rsp
    6e74:	48 89 7d f8          	mov    %rdi,-0x8(%rbp)
    6e78:	48 89 75 f0          	mov    %rsi,-0x10(%rbp)
    6e7c:	48 8b 45 f8          	mov    -0x8(%rbp),%rax
    6e80:	48 8b 55 f0          	mov    -0x10(%rbp),%rdx
    6e84:	48 89 d6             	mov    %rdx,%rsi
    6e87:	48 89 c7             	mov    %rax,%rdi
    6e8a:	e8 05 14 00 00       	callq  8294 <_ZNSt8_Rb_treeIiSt4pairIKiP4TeamESt10_Select1stIS4_ESt4lessIiESaIS4_EEC1ERKSA_>
    6e8f:	90                   	nop
    6e90:	c9                   	leaveq 
    6e91:	c3                   	retq   

0000000000006e92 <_ZNSt3mapIiP4TeamSt4lessIiESaISt4pairIKiS1_EEED1Ev>:
    6e92:	f3 0f 1e fa          	endbr64 
    6e96:	55                   	push   %rbp
    6e97:	48 89 e5             	mov    %rsp,%rbp
    6e9a:	48 83 ec 10          	sub    $0x10,%rsp
    6e9e:	48 89 7d f8          	mov    %rdi,-0x8(%rbp)
    6ea2:	48 8b 45 f8          	mov    -0x8(%rbp),%rax
    6ea6:	48 89 c7             	mov    %rax,%rdi
    6ea9:	e8 b6 05 00 00       	callq  7464 <_ZNSt8_Rb_treeIiSt4pairIKiP4TeamESt10_Select1stIS4_ESt4lessIiESaIS4_EED1Ev>
    6eae:	90                   	nop
    6eaf:	c9                   	leaveq 
    6eb0:	c3                   	retq   
    6eb1:	90                   	nop

0000000000006eb2 <_ZZN9__gnu_cxx6__stoaIlicJiEEET0_PFT_PKT1_PPS3_DpT2_EPKcS5_PmS9_EN11_Save_errnoC1Ev>:
    6eb2:	f3 0f 1e fa          	endbr64 
    6eb6:	55                   	push   %rbp
    6eb7:	48 89 e5             	mov    %rsp,%rbp
    6eba:	48 83 ec 10          	sub    $0x10,%rsp
    6ebe:	48 89 7d f8          	mov    %rdi,-0x8(%rbp)
    6ec2:	e8 c9 c5 ff ff       	callq  3490 <__errno_location@plt>
    6ec7:	8b 10                	mov    (%rax),%edx
    6ec9:	48 8b 45 f8          	mov    -0x8(%rbp),%rax
    6ecd:	89 10                	mov    %edx,(%rax)
    6ecf:	e8 bc c5 ff ff       	callq  3490 <__errno_location@plt>
    6ed4:	c7 00 00 00 00 00    	movl   $0x0,(%rax)
    6eda:	90                   	nop
    6edb:	c9                   	leaveq 
    6edc:	c3                   	retq   
    6edd:	90                   	nop

0000000000006ede <_ZZN9__gnu_cxx6__stoaIlicJiEEET0_PFT_PKT1_PPS3_DpT2_EPKcS5_PmS9_EN11_Save_errnoD1Ev>:
    6ede:	f3 0f 1e fa          	endbr64 
    6ee2:	55                   	push   %rbp
    6ee3:	48 89 e5             	mov    %rsp,%rbp
    6ee6:	48 83 ec 10          	sub    $0x10,%rsp
    6eea:	48 89 7d f8          	mov    %rdi,-0x8(%rbp)
    6eee:	e8 9d c5 ff ff       	callq  3490 <__errno_location@plt>
    6ef3:	8b 00                	mov    (%rax),%eax
    6ef5:	85 c0                	test   %eax,%eax
    6ef7:	75 0d                	jne    6f06 <_ZZN9__gnu_cxx6__stoaIlicJiEEET0_PFT_PKT1_PPS3_DpT2_EPKcS5_PmS9_EN11_Save_errnoD1Ev+0x28>
    6ef9:	e8 92 c5 ff ff       	callq  3490 <__errno_location@plt>
    6efe:	48 8b 55 f8          	mov    -0x8(%rbp),%rdx
    6f02:	8b 12                	mov    (%rdx),%edx
    6f04:	89 10                	mov    %edx,(%rax)
    6f06:	90                   	nop
    6f07:	c9                   	leaveq 
    6f08:	c3                   	retq   

0000000000006f09 <_ZZN9__gnu_cxx6__stoaIlicJiEEET0_PFT_PKT1_PPS3_DpT2_EPKcS5_PmS9_EN10_Range_chk6_S_chkElSt17integral_constantIbLb1EE>:
    6f09:	f3 0f 1e fa          	endbr64 
    6f0d:	55                   	push   %rbp
    6f0e:	48 89 e5             	mov    %rsp,%rbp
    6f11:	48 89 7d f8          	mov    %rdi,-0x8(%rbp)
